Archive member included because of file (symbol)

C:\nburn/lib/MOD5270.a(bsp.o)
                              c:/nburn/gcc-m68k/bin/../lib/gcc/m68k-elf/4.2.1/../../../../m68k-elf/lib/m5206e\nb-crt0.o (atexit)
C:\nburn/lib/MOD5270.a(ioboard.o)
                              observations.o (getdipsw)
C:\nburn/lib/MOD5270.a(pins.o)
                              argus_io.o (PinIO::set(unsigned char))
C:\nburn/lib/MOD5270.a(i2cmulti.o)
                              argus_io.o (Multi_I2CReadBuf)
C:\nburn/lib/NetBurner.a(ucosmcfa.o)
                              C:\nburn/lib/MOD5270.a(bsp.o) (OSCtxSw)
C:\nburn/lib/NetBurner.a(software_init.o)
                              c:/nburn/gcc-m68k/bin/../lib/gcc/m68k-elf/4.2.1/../../../../m68k-elf/lib/m5206e\nb-crt0.o (software_init_hook)
C:\nburn/lib/NetBurner.a(ucosmcfc.o)
                              services.o (OSTaskCreate)
C:\nburn/lib/NetBurner.a(ucos.o)
                              C:\nburn/lib/NetBurner.a(ucosmcfc.o) (OSSched)
C:\nburn/lib/NetBurner.a(ucosmain.o)
                              C:\nburn/lib/MOD5270.a(i2cmulti.o) (critical_count)
C:\nburn/lib/NetBurner.a(fileio.o)
                              C:\nburn/lib/NetBurner.a(ucosmain.o) (ioctl)
C:\nburn/lib/NetBurner.a(system.o)
                              utils.o (GetUserParameters)
C:\nburn/lib/NetBurner.a(main.o)
                              c:/nburn/gcc-m68k/bin/../lib/gcc/m68k-elf/4.2.1/../../../../m68k-elf/lib/m5206e\nb-crt0.o (main)
C:\nburn/lib/NetBurner.a(utils.o)
                              C:\nburn/lib/NetBurner.a(system.o) (AsciiToIp)
C:\nburn/lib/NetBurner.a(ip.o)
                              main.o (InitializeStack(unsigned long, unsigned long, unsigned long, unsigned long))
C:\nburn/lib/NetBurner.a(buffers.o)
                              C:\nburn/lib/NetBurner.a(ip.o) (FreeBuffer)
C:\nburn/lib/NetBurner.a(arp.o)
                              C:\nburn/lib/NetBurner.a(ip.o) (wArpLifetime)
C:\nburn/lib/NetBurner.a(udp.o)
                              services.o (UDPPacket::SetSourcePort(unsigned short))
C:\nburn/lib/NetBurner.a(tcp.o)
                              C:\nburn/lib/NetBurner.a(ip.o) (DumpTcpPacket(IPPKT*))
C:\nburn/lib/NetBurner.a(http.o)
                              main.o (StartHTTP)
C:\nburn/lib/NetBurner.a(httpinternal.o)
                              C:\nburn/lib/NetBurner.a(http.o) (TheErrorHandler)
C:\nburn/lib/NetBurner.a(htmldecomp.o)
                              C:\nburn/lib/NetBurner.a(httpinternal.o) (SendHeaderResponse(char*, int))
C:\nburn/lib/NetBurner.a(htmlvarplaceholder.o)
                              C:\nburn/lib/NetBurner.a(htmldecomp.o) (DoHtmlVariable(int, unsigned short))
C:\nburn/lib/NetBurner.a(iosys.o)
                              C:\nburn/lib/NetBurner.a(tcp.o) (FD_ZERO)
C:\nburn/lib/NetBurner.a(new_ops.o)
                              services.o (operator new(unsigned long))
C:\nburn/lib/NetBurner.a(autoip.o)
                              C:\nburn/lib/NetBurner.a(arp.o) (AutoIPClient::addressCollision())
C:\nburn/lib/NetBurner.a(dhcpc.o)
                              main.o (GetDHCPAddress(int))
C:\nburn/lib/NetBurner.a(netinterface.o)
                              C:\nburn/lib/NetBurner.a(ip.o) (GetFirstInterface())
C:\nburn/lib/NetBurner.a(taskmon.o)
                              main.o (EnableTaskMonitor())
C:\nburn/lib/NetBurner.a(smarttrap.o)
                              main.o (EnableSmartTraps())
C:\nburn/lib/NetBurner.a(autoupdate.o)
                              main.o (EnableAutoUpdate)
C:\nburn/lib/NetBurner.a(device.o)
                              C:\nburn/lib/NetBurner.a(main.o) (DeviceInitializeSem)
C:\nburn/lib/MOD5270.a(serial.o)
                              C:\nburn/lib/NetBurner.a(fileio.o) (SerialClose)
C:\nburn/lib/MOD5270.a(ethernet.o)
                              C:\nburn/lib/NetBurner.a(netinterface.o) (AddEthernetInterface())
C:\nburn/lib/MOD5270.a(etherprint.o)
                              C:\nburn/lib/MOD5270.a(ethernet.o) (EtherLink())
C:\nburn/lib/MOD5270.a(emulticast.o)
                              C:\nburn/lib/MOD5270.a(ethernet.o) (EthEnableMulticast(MACADR))
C:\nburn/lib/NetBurner.a(extraio.o)
                              C:\nburn/lib/MOD5270.a(serial.o) (GetExtraFD)
C:\nburn/lib/NetBurner.a(netrx.o)
                              C:\nburn/lib/MOD5270.a(ethernet.o) (NetDoRX(pool_buffer*, unsigned short, int))
c:/nburn/gcc-m68k/bin/../lib/gcc/m68k-elf/4.2.1/../../../../m68k-elf/lib/m5206e\libstdc++.a(functexcept.o)
                              services.o (std::__throw_bad_alloc())
c:/nburn/gcc-m68k/bin/../lib/gcc/m68k-elf/4.2.1/../../../../m68k-elf/lib/m5206e\libstdc++.a(ios_failure.o)
                              c:/nburn/gcc-m68k/bin/../lib/gcc/m68k-elf/4.2.1/../../../../m68k-elf/lib/m5206e\libstdc++.a(functexcept.o) (std::ios_base::failure::~failure())
c:/nburn/gcc-m68k/bin/../lib/gcc/m68k-elf/4.2.1/../../../../m68k-elf/lib/m5206e\libstdc++.a(stdexcept.o)
                              c:/nburn/gcc-m68k/bin/../lib/gcc/m68k-elf/4.2.1/../../../../m68k-elf/lib/m5206e\libstdc++.a(functexcept.o) (std::runtime_error::what() const)
c:/nburn/gcc-m68k/bin/../lib/gcc/m68k-elf/4.2.1/../../../../m68k-elf/lib/m5206e\libstdc++.a(tree.o)
                              services.o (std::_Rb_tree_increment(std::_Rb_tree_node_base*))
c:/nburn/gcc-m68k/bin/../lib/gcc/m68k-elf/4.2.1/../../../../m68k-elf/lib/m5206e\libstdc++.a(string-inst.o)
                              services.o (std::string::_Rep::_S_empty_rep_storage)
c:/nburn/gcc-m68k/bin/../lib/gcc/m68k-elf/4.2.1/../../../../m68k-elf/lib/m5206e\libstdc++.a(eh_throw.o)
                              c:/nburn/gcc-m68k/bin/../lib/gcc/m68k-elf/4.2.1/../../../../m68k-elf/lib/m5206e\libstdc++.a(functexcept.o) (__cxa_throw)
c:/nburn/gcc-m68k/bin/../lib/gcc/m68k-elf/4.2.1/../../../../m68k-elf/lib/m5206e\libstdc++.a(new_handler.o)
                              c:/nburn/gcc-m68k/bin/../lib/gcc/m68k-elf/4.2.1/../../../../m68k-elf/lib/m5206e\libstdc++.a(functexcept.o) (vtable for std::bad_alloc)
c:/nburn/gcc-m68k/bin/../lib/gcc/m68k-elf/4.2.1/../../../../m68k-elf/lib/m5206e\libstdc++.a(eh_globals.o)
                              c:/nburn/gcc-m68k/bin/../lib/gcc/m68k-elf/4.2.1/../../../../m68k-elf/lib/m5206e\libstdc++.a(eh_throw.o) (__cxa_get_globals)
c:/nburn/gcc-m68k/bin/../lib/gcc/m68k-elf/4.2.1/../../../../m68k-elf/lib/m5206e\libstdc++.a(eh_exception.o)
                              c:/nburn/gcc-m68k/bin/../lib/gcc/m68k-elf/4.2.1/../../../../m68k-elf/lib/m5206e\libstdc++.a(ios_failure.o) (std::exception::~exception())
c:/nburn/gcc-m68k/bin/../lib/gcc/m68k-elf/4.2.1/../../../../m68k-elf/lib/m5206e\libstdc++.a(guard.o)
                              obs.o (__cxa_guard_release)
c:/nburn/gcc-m68k/bin/../lib/gcc/m68k-elf/4.2.1/../../../../m68k-elf/lib/m5206e\libstdc++.a(eh_catch.o)
                              c:/nburn/gcc-m68k/bin/../lib/gcc/m68k-elf/4.2.1/../../../../m68k-elf/lib/m5206e\libstdc++.a(eh_throw.o) (__cxa_begin_catch)
c:/nburn/gcc-m68k/bin/../lib/gcc/m68k-elf/4.2.1/../../../../m68k-elf/lib/m5206e\libstdc++.a(eh_terminate.o)
                              c:/nburn/gcc-m68k/bin/../lib/gcc/m68k-elf/4.2.1/../../../../m68k-elf/lib/m5206e\libstdc++.a(eh_throw.o) (__cxxabiv1::__terminate(void (*)()))
c:/nburn/gcc-m68k/bin/../lib/gcc/m68k-elf/4.2.1/../../../../m68k-elf/lib/m5206e\libstdc++.a(bad_typeid.o)
                              c:/nburn/gcc-m68k/bin/../lib/gcc/m68k-elf/4.2.1/../../../../m68k-elf/lib/m5206e\libstdc++.a(functexcept.o) (vtable for std::bad_typeid)
c:/nburn/gcc-m68k/bin/../lib/gcc/m68k-elf/4.2.1/../../../../m68k-elf/lib/m5206e\libstdc++.a(del_op.o)
                              services.o (operator delete(void*))
c:/nburn/gcc-m68k/bin/../lib/gcc/m68k-elf/4.2.1/../../../../m68k-elf/lib/m5206e\libstdc++.a(class_type_info.o)
                              c:/nburn/gcc-m68k/bin/../lib/gcc/m68k-elf/4.2.1/../../../../m68k-elf/lib/m5206e\libstdc++.a(eh_exception.o) (vtable for __cxxabiv1::__class_type_info)
c:/nburn/gcc-m68k/bin/../lib/gcc/m68k-elf/4.2.1/../../../../m68k-elf/lib/m5206e\libstdc++.a(eh_term_handler.o)
                              c:/nburn/gcc-m68k/bin/../lib/gcc/m68k-elf/4.2.1/../../../../m68k-elf/lib/m5206e\libstdc++.a(eh_throw.o) (__cxxabiv1::__terminate_handler)
c:/nburn/gcc-m68k/bin/../lib/gcc/m68k-elf/4.2.1/../../../../m68k-elf/lib/m5206e\libstdc++.a(eh_personality.o)
                              c:/nburn/gcc-m68k/bin/../lib/gcc/m68k-elf/4.2.1/../../../../m68k-elf/lib/m5206e\libstdc++.a(ios_failure.o) (__cxa_call_unexpected)
c:/nburn/gcc-m68k/bin/../lib/gcc/m68k-elf/4.2.1/../../../../m68k-elf/lib/m5206e\libstdc++.a(pure.o)
                              services.o (__cxa_pure_virtual)
c:/nburn/gcc-m68k/bin/../lib/gcc/m68k-elf/4.2.1/../../../../m68k-elf/lib/m5206e\libstdc++.a(eh_alloc.o)
                              c:/nburn/gcc-m68k/bin/../lib/gcc/m68k-elf/4.2.1/../../../../m68k-elf/lib/m5206e\libstdc++.a(functexcept.o) (__cxa_allocate_exception)
c:/nburn/gcc-m68k/bin/../lib/gcc/m68k-elf/4.2.1/../../../../m68k-elf/lib/m5206e\libstdc++.a(bad_cast.o)
                              c:/nburn/gcc-m68k/bin/../lib/gcc/m68k-elf/4.2.1/../../../../m68k-elf/lib/m5206e\libstdc++.a(functexcept.o) (vtable for std::bad_cast)
c:/nburn/gcc-m68k/bin/../lib/gcc/m68k-elf/4.2.1/../../../../m68k-elf/lib/m5206e\libstdc++.a(eh_unex_handler.o)
                              c:/nburn/gcc-m68k/bin/../lib/gcc/m68k-elf/4.2.1/../../../../m68k-elf/lib/m5206e\libstdc++.a(eh_throw.o) (__cxxabiv1::__unexpected_handler)
c:/nburn/gcc-m68k/bin/../lib/gcc/m68k-elf/4.2.1/../../../../m68k-elf/lib/m5206e\libstdc++.a(si_class_type_info.o)
                              c:/nburn/gcc-m68k/bin/../lib/gcc/m68k-elf/4.2.1/../../../../m68k-elf/lib/m5206e\libstdc++.a(functexcept.o) (vtable for __cxxabiv1::__si_class_type_info)
c:/nburn/gcc-m68k/bin/../lib/gcc/m68k-elf/4.2.1/../../../../m68k-elf/lib/m5206e\libstdc++.a(vterminate.o)
                              c:/nburn/gcc-m68k/bin/../lib/gcc/m68k-elf/4.2.1/../../../../m68k-elf/lib/m5206e\libstdc++.a(eh_term_handler.o) (__gnu_cxx::__verbose_terminate_handler())
c:/nburn/gcc-m68k/bin/../lib/gcc/m68k-elf/4.2.1/../../../../m68k-elf/lib/m5206e\libstdc++.a(eh_call.o)
                              c:/nburn/gcc-m68k/bin/../lib/gcc/m68k-elf/4.2.1/../../../../m68k-elf/lib/m5206e\libstdc++.a(eh_personality.o) (__cxa_call_terminate)
c:/nburn/gcc-m68k/bin/../lib/gcc/m68k-elf/4.2.1/../../../../m68k-elf/lib/m5206e\libstdc++.a(cp-demangle.o)
                              c:/nburn/gcc-m68k/bin/../lib/gcc/m68k-elf/4.2.1/../../../../m68k-elf/lib/m5206e\libstdc++.a(vterminate.o) (__cxa_demangle)
c:/nburn/gcc-m68k/bin/../lib/gcc/m68k-elf/4.2.1/../../../../m68k-elf/lib/m5206e\libstdc++.a(tinfo.o)
                              c:/nburn/gcc-m68k/bin/../lib/gcc/m68k-elf/4.2.1/../../../../m68k-elf/lib/m5206e\libstdc++.a(class_type_info.o) (std::type_info::__is_pointer_p() const)
c:/nburn/gcc-m68k/bin/../lib/gcc/m68k-elf/4.2.1/../../../../m68k-elf/lib/m5206e\libstdc++.a(eh_type.o)
                              c:/nburn/gcc-m68k/bin/../lib/gcc/m68k-elf/4.2.1/../../../../m68k-elf/lib/m5206e\libstdc++.a(vterminate.o) (__cxa_current_exception_type)
c:/nburn/gcc-m68k/bin/../lib/gcc/m68k-elf/4.2.1/../../../../m68k-elf/lib/m5206e\libm.a(lib_a-s_round.o)
                              argus_io.o (round)
c:/nburn/gcc-m68k/bin/../lib/gcc/m68k-elf/4.2.1/../../../../m68k-elf/lib/m5206e\libm.a(lib_a-wf_asin.o)
                              io.o (asinf)
c:/nburn/gcc-m68k/bin/../lib/gcc/m68k-elf/4.2.1/../../../../m68k-elf/lib/m5206e\libm.a(lib_a-wf_pow.o)
                              argus_control.o (powf)
c:/nburn/gcc-m68k/bin/../lib/gcc/m68k-elf/4.2.1/../../../../m68k-elf/lib/m5206e\libm.a(lib_a-ef_asin.o)
                              c:/nburn/gcc-m68k/bin/../lib/gcc/m68k-elf/4.2.1/../../../../m68k-elf/lib/m5206e\libm.a(lib_a-wf_asin.o) (__ieee754_asinf)
c:/nburn/gcc-m68k/bin/../lib/gcc/m68k-elf/4.2.1/../../../../m68k-elf/lib/m5206e\libm.a(lib_a-ef_pow.o)
                              c:/nburn/gcc-m68k/bin/../lib/gcc/m68k-elf/4.2.1/../../../../m68k-elf/lib/m5206e\libm.a(lib_a-wf_pow.o) (__ieee754_powf)
c:/nburn/gcc-m68k/bin/../lib/gcc/m68k-elf/4.2.1/../../../../m68k-elf/lib/m5206e\libm.a(lib_a-ef_sqrt.o)
                              c:/nburn/gcc-m68k/bin/../lib/gcc/m68k-elf/4.2.1/../../../../m68k-elf/lib/m5206e\libm.a(lib_a-ef_asin.o) (__ieee754_sqrtf)
c:/nburn/gcc-m68k/bin/../lib/gcc/m68k-elf/4.2.1/../../../../m68k-elf/lib/m5206e\libm.a(lib_a-sf_fabs.o)
                              c:/nburn/gcc-m68k/bin/../lib/gcc/m68k-elf/4.2.1/../../../../m68k-elf/lib/m5206e\libm.a(lib_a-wf_asin.o) (fabsf)
c:/nburn/gcc-m68k/bin/../lib/gcc/m68k-elf/4.2.1/../../../../m68k-elf/lib/m5206e\libm.a(lib_a-sf_finite.o)
                              c:/nburn/gcc-m68k/bin/../lib/gcc/m68k-elf/4.2.1/../../../../m68k-elf/lib/m5206e\libm.a(lib_a-wf_pow.o) (finitef)
c:/nburn/gcc-m68k/bin/../lib/gcc/m68k-elf/4.2.1/../../../../m68k-elf/lib/m5206e\libm.a(lib_a-sf_isnan.o)
                              c:/nburn/gcc-m68k/bin/../lib/gcc/m68k-elf/4.2.1/../../../../m68k-elf/lib/m5206e\libm.a(lib_a-wf_asin.o) (isnanf)
c:/nburn/gcc-m68k/bin/../lib/gcc/m68k-elf/4.2.1/../../../../m68k-elf/lib/m5206e\libm.a(lib_a-sf_scalbn.o)
                              c:/nburn/gcc-m68k/bin/../lib/gcc/m68k-elf/4.2.1/../../../../m68k-elf/lib/m5206e\libm.a(lib_a-ef_pow.o) (scalbnf)
c:/nburn/gcc-m68k/bin/../lib/gcc/m68k-elf/4.2.1/../../../../m68k-elf/lib/m5206e\libm.a(lib_a-s_lib_ver.o)
                              c:/nburn/gcc-m68k/bin/../lib/gcc/m68k-elf/4.2.1/../../../../m68k-elf/lib/m5206e\libm.a(lib_a-wf_asin.o) (__fdlib_version)
c:/nburn/gcc-m68k/bin/../lib/gcc/m68k-elf/4.2.1/../../../../m68k-elf/lib/m5206e\libm.a(lib_a-s_matherr.o)
                              c:/nburn/gcc-m68k/bin/../lib/gcc/m68k-elf/4.2.1/../../../../m68k-elf/lib/m5206e\libm.a(lib_a-wf_asin.o) (matherr)
c:/nburn/gcc-m68k/bin/../lib/gcc/m68k-elf/4.2.1/../../../../m68k-elf/lib/m5206e\libm.a(lib_a-s_rint.o)
                              c:/nburn/gcc-m68k/bin/../lib/gcc/m68k-elf/4.2.1/../../../../m68k-elf/lib/m5206e\libm.a(lib_a-wf_pow.o) (rint)
c:/nburn/gcc-m68k/bin/../lib/gcc/m68k-elf/4.2.1/../../../../m68k-elf/lib/m5206e\libm.a(lib_a-sf_copysign.o)
                              c:/nburn/gcc-m68k/bin/../lib/gcc/m68k-elf/4.2.1/../../../../m68k-elf/lib/m5206e\libm.a(lib_a-sf_scalbn.o) (copysignf)
c:/nburn/gcc-m68k/bin/../lib/gcc/m68k-elf/4.2.1/m5206e\libgcc.a(_double.o)
                              control.o (__adddf3)
c:/nburn/gcc-m68k/bin/../lib/gcc/m68k-elf/4.2.1/m5206e\libgcc.a(_float.o)
                              io.o (__addsf3)
c:/nburn/gcc-m68k/bin/../lib/gcc/m68k-elf/4.2.1/m5206e\libgcc.a(_floatex.o)
                              c:/nburn/gcc-m68k/bin/../lib/gcc/m68k-elf/4.2.1/m5206e\libgcc.a(_double.o) (_fpCCR)
c:/nburn/gcc-m68k/bin/../lib/gcc/m68k-elf/4.2.1/m5206e\libgcc.a(_nedf2.o)
                              c:/nburn/gcc-m68k/bin/../lib/gcc/m68k-elf/4.2.1/../../../../m68k-elf/lib/m5206e\libm.a(lib_a-wf_pow.o) (__nedf2)
c:/nburn/gcc-m68k/bin/../lib/gcc/m68k-elf/4.2.1/m5206e\libgcc.a(_gtdf2.o)
                              argus_io.o (__gtdf2)
c:/nburn/gcc-m68k/bin/../lib/gcc/m68k-elf/4.2.1/m5206e\libgcc.a(_gedf2.o)
                              argus_io.o (__gedf2)
c:/nburn/gcc-m68k/bin/../lib/gcc/m68k-elf/4.2.1/m5206e\libgcc.a(_ltdf2.o)
                              argus_io.o (__ltdf2)
c:/nburn/gcc-m68k/bin/../lib/gcc/m68k-elf/4.2.1/m5206e\libgcc.a(_ledf2.o)
                              control.o (__ledf2)
c:/nburn/gcc-m68k/bin/../lib/gcc/m68k-elf/4.2.1/m5206e\libgcc.a(_eqsf2.o)
                              c:/nburn/gcc-m68k/bin/../lib/gcc/m68k-elf/4.2.1/../../../../m68k-elf/lib/m5206e\libm.a(lib_a-wf_pow.o) (__eqsf2)
c:/nburn/gcc-m68k/bin/../lib/gcc/m68k-elf/4.2.1/m5206e\libgcc.a(_gtsf2.o)
                              argus_io.o (__gtsf2)
c:/nburn/gcc-m68k/bin/../lib/gcc/m68k-elf/4.2.1/m5206e\libgcc.a(_gesf2.o)
                              control.o (__gesf2)
c:/nburn/gcc-m68k/bin/../lib/gcc/m68k-elf/4.2.1/m5206e\libgcc.a(_ltsf2.o)
                              argus_io.o (__ltsf2)
c:/nburn/gcc-m68k/bin/../lib/gcc/m68k-elf/4.2.1/m5206e\libgcc.a(_lesf2.o)
                              control.o (__lesf2)
c:/nburn/gcc-m68k/bin/../lib/gcc/m68k-elf/4.2.1/m5206e\libgcc.a(_fixunssfsi.o)
                              control.o (__fixunssfsi)
c:/nburn/gcc-m68k/bin/../lib/gcc/m68k-elf/4.2.1/m5206e\libgcc.a(_fixunsdfsi.o)
                              argus_io.o (__fixunsdfsi)
c:/nburn/gcc-m68k/bin/../lib/gcc/m68k-elf/4.2.1/m5206e\libgcc.a(_fixdfdi.o)
                              control.o (__fixdfdi)
c:/nburn/gcc-m68k/bin/../lib/gcc/m68k-elf/4.2.1/m5206e\libgcc.a(_fixunsdfdi.o)
                              c:/nburn/gcc-m68k/bin/../lib/gcc/m68k-elf/4.2.1/m5206e\libgcc.a(_fixdfdi.o) (__fixunsdfdi)
c:/nburn/gcc-m68k/bin/../lib/gcc/m68k-elf/4.2.1/m5206e\libgcc.a(_udivdi3.o)
                              control.o (__udivdi3)
c:/nburn/gcc-m68k/bin/../lib/gcc/m68k-elf/4.2.1/m5206e\libgcc.a(_umoddi3.o)
                              control.o (__umoddi3)
c:/nburn/gcc-m68k/bin/../lib/gcc/m68k-elf/4.2.1/m5206e\libgcc.a(fpgnulib.o)
                              C:\nburn/lib/MOD5270.a(bsp.o) (__floatunsidf)
c:/nburn/gcc-m68k/bin/../lib/gcc/m68k-elf/4.2.1/m5206e\libgcc.a(unwind-dw2.o)
                              c:/nburn/gcc-m68k/bin/../lib/gcc/m68k-elf/4.2.1/../../../../m68k-elf/lib/m5206e\libstdc++.a(eh_personality.o) (_Unwind_GetIP)
c:/nburn/gcc-m68k/bin/../lib/gcc/m68k-elf/4.2.1/m5206e\libgcc.a(unwind-dw2-fde.o)
                              c:/nburn/gcc-m68k/bin/../lib/gcc/m68k-elf/4.2.1/m5206e\libgcc.a(unwind-dw2.o) (_Unwind_Find_FDE)
c:/nburn/gcc-m68k/bin/../lib/gcc/m68k-elf/4.2.1/m5206e\libgcc.a(_clz.o)
                              c:/nburn/gcc-m68k/bin/../lib/gcc/m68k-elf/4.2.1/m5206e\libgcc.a(_udivdi3.o) (__clz_tab)
c:/nburn/gcc-m68k/bin/../lib/gcc/m68k-elf/4.2.1/../../../../m68k-elf/lib/m5206e\libc.a(lib_a-abort.o)
                              c:/nburn/gcc-m68k/bin/../lib/gcc/m68k-elf/4.2.1/../../../../m68k-elf/lib/m5206e\libstdc++.a(eh_terminate.o) (abort)
c:/nburn/gcc-m68k/bin/../lib/gcc/m68k-elf/4.2.1/../../../../m68k-elf/lib/m5206e\libc.a(lib_a-atof.o)
                              control.o (atof)
c:/nburn/gcc-m68k/bin/../lib/gcc/m68k-elf/4.2.1/../../../../m68k-elf/lib/m5206e\libc.a(lib_a-atoi.o)
                              control.o (atoi)
c:/nburn/gcc-m68k/bin/../lib/gcc/m68k-elf/4.2.1/../../../../m68k-elf/lib/m5206e\libc.a(lib_a-bsearch.o)
                              C:\nburn/lib/NetBurner.a(htmldecomp.o) (bsearch)
c:/nburn/gcc-m68k/bin/../lib/gcc/m68k-elf/4.2.1/../../../../m68k-elf/lib/m5206e\libc.a(lib_a-ctype_.o)
                              utils.o (__ctype_ptr)
c:/nburn/gcc-m68k/bin/../lib/gcc/m68k-elf/4.2.1/../../../../m68k-elf/lib/m5206e\libc.a(lib_a-cxa_atexit.o)
                              obs.o (__cxa_atexit)
c:/nburn/gcc-m68k/bin/../lib/gcc/m68k-elf/4.2.1/../../../../m68k-elf/lib/m5206e\libc.a(lib_a-div.o)
                              utils.o (div)
c:/nburn/gcc-m68k/bin/../lib/gcc/m68k-elf/4.2.1/../../../../m68k-elf/lib/m5206e\libc.a(lib_a-errno.o)
                              C:\nburn/lib/NetBurner.a(fileio.o) (__errno)
c:/nburn/gcc-m68k/bin/../lib/gcc/m68k-elf/4.2.1/../../../../m68k-elf/lib/m5206e\libc.a(lib_a-fdopen.o)
                              control.o (fdopen)
c:/nburn/gcc-m68k/bin/../lib/gcc/m68k-elf/4.2.1/../../../../m68k-elf/lib/m5206e\libc.a(lib_a-fflush.o)
                              control.o (fflush)
c:/nburn/gcc-m68k/bin/../lib/gcc/m68k-elf/4.2.1/../../../../m68k-elf/lib/m5206e\libc.a(lib_a-findfp.o)
                              c:/nburn/gcc-m68k/bin/../lib/gcc/m68k-elf/4.2.1/../../../../m68k-elf/lib/m5206e\libc.a(lib_a-fflush.o) (__sinit)
c:/nburn/gcc-m68k/bin/../lib/gcc/m68k-elf/4.2.1/../../../../m68k-elf/lib/m5206e\libc.a(lib_a-fiprintf.o)
                              C:\nburn/lib/NetBurner.a(utils.o) (fiprintf)
c:/nburn/gcc-m68k/bin/../lib/gcc/m68k-elf/4.2.1/../../../../m68k-elf/lib/m5206e\libc.a(lib_a-flags.o)
                              c:/nburn/gcc-m68k/bin/../lib/gcc/m68k-elf/4.2.1/../../../../m68k-elf/lib/m5206e\libc.a(lib_a-fdopen.o) (__sflags)
c:/nburn/gcc-m68k/bin/../lib/gcc/m68k-elf/4.2.1/../../../../m68k-elf/lib/m5206e\libc.a(lib_a-fprintf.o)
                              control.o (fprintf)
c:/nburn/gcc-m68k/bin/../lib/gcc/m68k-elf/4.2.1/../../../../m68k-elf/lib/m5206e\libc.a(lib_a-fputc.o)
                              c:/nburn/gcc-m68k/bin/../lib/gcc/m68k-elf/4.2.1/../../../../m68k-elf/lib/m5206e\libstdc++.a(vterminate.o) (fputc)
c:/nburn/gcc-m68k/bin/../lib/gcc/m68k-elf/4.2.1/../../../../m68k-elf/lib/m5206e\libc.a(lib_a-fputs.o)
                              utils.o (fputs)
c:/nburn/gcc-m68k/bin/../lib/gcc/m68k-elf/4.2.1/../../../../m68k-elf/lib/m5206e\libc.a(lib_a-fvwrite.o)
                              c:/nburn/gcc-m68k/bin/../lib/gcc/m68k-elf/4.2.1/../../../../m68k-elf/lib/m5206e\libc.a(lib_a-fputs.o) (__sfvwrite_r)
c:/nburn/gcc-m68k/bin/../lib/gcc/m68k-elf/4.2.1/../../../../m68k-elf/lib/m5206e\libc.a(lib_a-fwalk.o)
                              c:/nburn/gcc-m68k/bin/../lib/gcc/m68k-elf/4.2.1/../../../../m68k-elf/lib/m5206e\libc.a(lib_a-fflush.o) (_fwalk)
c:/nburn/gcc-m68k/bin/../lib/gcc/m68k-elf/4.2.1/../../../../m68k-elf/lib/m5206e\libc.a(lib_a-fwrite.o)
                              control.o (fwrite)
c:/nburn/gcc-m68k/bin/../lib/gcc/m68k-elf/4.2.1/../../../../m68k-elf/lib/m5206e\libc.a(lib_a-gmtime.o)
                              control.o (gmtime)
c:/nburn/gcc-m68k/bin/../lib/gcc/m68k-elf/4.2.1/../../../../m68k-elf/lib/m5206e\libc.a(lib_a-gmtime_r.o)
                              c:/nburn/gcc-m68k/bin/../lib/gcc/m68k-elf/4.2.1/../../../../m68k-elf/lib/m5206e\libc.a(lib_a-gmtime.o) (gmtime_r)
c:/nburn/gcc-m68k/bin/../lib/gcc/m68k-elf/4.2.1/../../../../m68k-elf/lib/m5206e\libc.a(lib_a-impure.o)
                              utils.o (_impure_ptr)
c:/nburn/gcc-m68k/bin/../lib/gcc/m68k-elf/4.2.1/../../../../m68k-elf/lib/m5206e\libc.a(lib_a-iprintf.o)
                              utils.o (iprintf)
c:/nburn/gcc-m68k/bin/../lib/gcc/m68k-elf/4.2.1/../../../../m68k-elf/lib/m5206e\libc.a(lib_a-isprint.o)
                              control.o (isgraph)
c:/nburn/gcc-m68k/bin/../lib/gcc/m68k-elf/4.2.1/../../../../m68k-elf/lib/m5206e\libc.a(lib_a-isspace.o)
                              control.o (isspace)
c:/nburn/gcc-m68k/bin/../lib/gcc/m68k-elf/4.2.1/../../../../m68k-elf/lib/m5206e\libc.a(lib_a-malloc.o)
                              C:\nburn/lib/NetBurner.a(utils.o) (free)
c:/nburn/gcc-m68k/bin/../lib/gcc/m68k-elf/4.2.1/../../../../m68k-elf/lib/m5206e\libc.a(lib_a-mallocr.o)
                              c:/nburn/gcc-m68k/bin/../lib/gcc/m68k-elf/4.2.1/../../../../m68k-elf/lib/m5206e\libc.a(lib_a-findfp.o) (_malloc_r)
c:/nburn/gcc-m68k/bin/../lib/gcc/m68k-elf/4.2.1/../../../../m68k-elf/lib/m5206e\libc.a(lib_a-memchr.o)
                              c:/nburn/gcc-m68k/bin/../lib/gcc/m68k-elf/4.2.1/../../../../m68k-elf/lib/m5206e\libstdc++.a(string-inst.o) (memchr)
c:/nburn/gcc-m68k/bin/../lib/gcc/m68k-elf/4.2.1/../../../../m68k-elf/lib/m5206e\libc.a(lib_a-memcmp.o)
                              services.o (memcmp)
c:/nburn/gcc-m68k/bin/../lib/gcc/m68k-elf/4.2.1/../../../../m68k-elf/lib/m5206e\libc.a(lib_a-memmove.o)
                              utils.o (memmove)
c:/nburn/gcc-m68k/bin/../lib/gcc/m68k-elf/4.2.1/../../../../m68k-elf/lib/m5206e\libc.a(lib_a-mktm_r.o)
                              c:/nburn/gcc-m68k/bin/../lib/gcc/m68k-elf/4.2.1/../../../../m68k-elf/lib/m5206e\libc.a(lib_a-gmtime_r.o) (_mktm_r)
c:/nburn/gcc-m68k/bin/../lib/gcc/m68k-elf/4.2.1/../../../../m68k-elf/lib/m5206e\libc.a(lib_a-printf.o)
                              argus_io.o (printf)
c:/nburn/gcc-m68k/bin/../lib/gcc/m68k-elf/4.2.1/../../../../m68k-elf/lib/m5206e\libc.a(lib_a-putc.o)
                              c:/nburn/gcc-m68k/bin/../lib/gcc/m68k-elf/4.2.1/../../../../m68k-elf/lib/m5206e\libc.a(lib_a-fputc.o) (_putc_r)
c:/nburn/gcc-m68k/bin/../lib/gcc/m68k-elf/4.2.1/../../../../m68k-elf/lib/m5206e\libc.a(lib_a-puts.o)
                              C:\nburn/lib/NetBurner.a(utils.o) (puts)
c:/nburn/gcc-m68k/bin/../lib/gcc/m68k-elf/4.2.1/../../../../m68k-elf/lib/m5206e\libc.a(lib_a-rand.o)
                              C:\nburn/lib/NetBurner.a(autoip.o) (srand)
c:/nburn/gcc-m68k/bin/../lib/gcc/m68k-elf/4.2.1/../../../../m68k-elf/lib/m5206e\libc.a(lib_a-realloc.o)
                              c:/nburn/gcc-m68k/bin/../lib/gcc/m68k-elf/4.2.1/../../../../m68k-elf/lib/m5206e\libstdc++.a(cp-demangle.o) (realloc)
c:/nburn/gcc-m68k/bin/../lib/gcc/m68k-elf/4.2.1/../../../../m68k-elf/lib/m5206e\libc.a(lib_a-reallocr.o)
                              c:/nburn/gcc-m68k/bin/../lib/gcc/m68k-elf/4.2.1/../../../../m68k-elf/lib/m5206e\libc.a(lib_a-fvwrite.o) (_realloc_r)
c:/nburn/gcc-m68k/bin/../lib/gcc/m68k-elf/4.2.1/../../../../m68k-elf/lib/m5206e\libc.a(lib_a-rget.o)
                              C:\nburn/lib/NetBurner.a(system.o) (__srget_r)
c:/nburn/gcc-m68k/bin/../lib/gcc/m68k-elf/4.2.1/../../../../m68k-elf/lib/m5206e\libc.a(lib_a-setvbuf.o)
                              C:\nburn/lib/NetBurner.a(ucosmain.o) (setvbuf)
c:/nburn/gcc-m68k/bin/../lib/gcc/m68k-elf/4.2.1/../../../../m68k-elf/lib/m5206e\libc.a(lib_a-signal.o)
                              c:/nburn/gcc-m68k/bin/../lib/gcc/m68k-elf/4.2.1/../../../../m68k-elf/lib/m5206e\libc.a(lib_a-abort.o) (raise)
c:/nburn/gcc-m68k/bin/../lib/gcc/m68k-elf/4.2.1/../../../../m68k-elf/lib/m5206e\libc.a(lib_a-signalr.o)
                              c:/nburn/gcc-m68k/bin/../lib/gcc/m68k-elf/4.2.1/../../../../m68k-elf/lib/m5206e\libc.a(lib_a-signal.o) (_getpid_r)
c:/nburn/gcc-m68k/bin/../lib/gcc/m68k-elf/4.2.1/../../../../m68k-elf/lib/m5206e\libc.a(lib_a-siprintf.o)
                              utils.o (siprintf)
c:/nburn/gcc-m68k/bin/../lib/gcc/m68k-elf/4.2.1/../../../../m68k-elf/lib/m5206e\libc.a(lib_a-sprintf.o)
                              control.o (sprintf)
c:/nburn/gcc-m68k/bin/../lib/gcc/m68k-elf/4.2.1/../../../../m68k-elf/lib/m5206e\libc.a(lib_a-sscanf.o)
                              utils.o (sscanf)
c:/nburn/gcc-m68k/bin/../lib/gcc/m68k-elf/4.2.1/../../../../m68k-elf/lib/m5206e\libc.a(lib_a-stdio.o)
                              c:/nburn/gcc-m68k/bin/../lib/gcc/m68k-elf/4.2.1/../../../../m68k-elf/lib/m5206e\libc.a(lib_a-fdopen.o) (__sclose)
c:/nburn/gcc-m68k/bin/../lib/gcc/m68k-elf/4.2.1/../../../../m68k-elf/lib/m5206e\libc.a(lib_a-strcasecmp.o)
                              control.o (strcasecmp)
c:/nburn/gcc-m68k/bin/../lib/gcc/m68k-elf/4.2.1/../../../../m68k-elf/lib/m5206e\libc.a(lib_a-strcat.o)
                              services.o (strcat)
c:/nburn/gcc-m68k/bin/../lib/gcc/m68k-elf/4.2.1/../../../../m68k-elf/lib/m5206e\libc.a(lib_a-strchr.o)
                              utils.o (strchr)
c:/nburn/gcc-m68k/bin/../lib/gcc/m68k-elf/4.2.1/../../../../m68k-elf/lib/m5206e\libc.a(lib_a-strcmp.o)
                              services.o (strcmp)
c:/nburn/gcc-m68k/bin/../lib/gcc/m68k-elf/4.2.1/../../../../m68k-elf/lib/m5206e\libc.a(lib_a-strcpy.o)
                              control.o (strcpy)
c:/nburn/gcc-m68k/bin/../lib/gcc/m68k-elf/4.2.1/../../../../m68k-elf/lib/m5206e\libc.a(lib_a-strlen.o)
                              utils.o (strlen)
c:/nburn/gcc-m68k/bin/../lib/gcc/m68k-elf/4.2.1/../../../../m68k-elf/lib/m5206e\libc.a(lib_a-strncmp.o)
                              obs.o (strncmp)
c:/nburn/gcc-m68k/bin/../lib/gcc/m68k-elf/4.2.1/../../../../m68k-elf/lib/m5206e\libc.a(lib_a-strncpy.o)
                              services.o (strncpy)
c:/nburn/gcc-m68k/bin/../lib/gcc/m68k-elf/4.2.1/../../../../m68k-elf/lib/m5206e\libc.a(lib_a-strspn.o)
                              services.o (strspn)
c:/nburn/gcc-m68k/bin/../lib/gcc/m68k-elf/4.2.1/../../../../m68k-elf/lib/m5206e\libc.a(lib_a-strstr.o)
                              C:\nburn/lib/NetBurner.a(httpinternal.o) (strstr)
c:/nburn/gcc-m68k/bin/../lib/gcc/m68k-elf/4.2.1/../../../../m68k-elf/lib/m5206e\libc.a(lib_a-strtod.o)
                              c:/nburn/gcc-m68k/bin/../lib/gcc/m68k-elf/4.2.1/../../../../m68k-elf/lib/m5206e\libc.a(lib_a-atof.o) (strtod)
c:/nburn/gcc-m68k/bin/../lib/gcc/m68k-elf/4.2.1/../../../../m68k-elf/lib/m5206e\libc.a(lib_a-strtok_r.o)
                              control.o (strtok_r)
c:/nburn/gcc-m68k/bin/../lib/gcc/m68k-elf/4.2.1/../../../../m68k-elf/lib/m5206e\libc.a(lib_a-strtol.o)
                              c:/nburn/gcc-m68k/bin/../lib/gcc/m68k-elf/4.2.1/../../../../m68k-elf/lib/m5206e\libc.a(lib_a-atoi.o) (_strtol_r)
c:/nburn/gcc-m68k/bin/../lib/gcc/m68k-elf/4.2.1/../../../../m68k-elf/lib/m5206e\libc.a(lib_a-tolower.o)
                              control.o (tolower)
c:/nburn/gcc-m68k/bin/../lib/gcc/m68k-elf/4.2.1/../../../../m68k-elf/lib/m5206e\libc.a(lib_a-toupper.o)
                              argus_control.o (toupper)
c:/nburn/gcc-m68k/bin/../lib/gcc/m68k-elf/4.2.1/../../../../m68k-elf/lib/m5206e\libc.a(lib_a-tzvars.o)
                              c:/nburn/gcc-m68k/bin/../lib/gcc/m68k-elf/4.2.1/../../../../m68k-elf/lib/m5206e\libc.a(lib_a-mktm_r.o) (_daylight)
c:/nburn/gcc-m68k/bin/../lib/gcc/m68k-elf/4.2.1/../../../../m68k-elf/lib/m5206e\libc.a(lib_a-vfiprintf.o)
                              c:/nburn/gcc-m68k/bin/../lib/gcc/m68k-elf/4.2.1/../../../../m68k-elf/lib/m5206e\libc.a(lib_a-iprintf.o) (_vfiprintf_r)
c:/nburn/gcc-m68k/bin/../lib/gcc/m68k-elf/4.2.1/../../../../m68k-elf/lib/m5206e\libc.a(lib_a-vfprintf.o)
                              c:/nburn/gcc-m68k/bin/../lib/gcc/m68k-elf/4.2.1/../../../../m68k-elf/lib/m5206e\libc.a(lib_a-printf.o) (_vfprintf_r)
c:/nburn/gcc-m68k/bin/../lib/gcc/m68k-elf/4.2.1/../../../../m68k-elf/lib/m5206e\libc.a(lib_a-vfscanf.o)
                              c:/nburn/gcc-m68k/bin/../lib/gcc/m68k-elf/4.2.1/../../../../m68k-elf/lib/m5206e\libc.a(lib_a-sscanf.o) (__svfscanf_r)
c:/nburn/gcc-m68k/bin/../lib/gcc/m68k-elf/4.2.1/../../../../m68k-elf/lib/m5206e\libc.a(lib_a-wbuf.o)
                              C:\nburn/lib/NetBurner.a(system.o) (__swbuf_r)
c:/nburn/gcc-m68k/bin/../lib/gcc/m68k-elf/4.2.1/../../../../m68k-elf/lib/m5206e\libc.a(lib_a-wcrtomb.o)
                              c:/nburn/gcc-m68k/bin/../lib/gcc/m68k-elf/4.2.1/../../../../m68k-elf/lib/m5206e\libc.a(lib_a-vfiprintf.o) (_wcrtomb_r)
c:/nburn/gcc-m68k/bin/../lib/gcc/m68k-elf/4.2.1/../../../../m68k-elf/lib/m5206e\libc.a(lib_a-wcsrtombs.o)
                              c:/nburn/gcc-m68k/bin/../lib/gcc/m68k-elf/4.2.1/../../../../m68k-elf/lib/m5206e\libc.a(lib_a-vfiprintf.o) (_wcsrtombs_r)
c:/nburn/gcc-m68k/bin/../lib/gcc/m68k-elf/4.2.1/../../../../m68k-elf/lib/m5206e\libc.a(lib_a-wctomb_r.o)
                              c:/nburn/gcc-m68k/bin/../lib/gcc/m68k-elf/4.2.1/../../../../m68k-elf/lib/m5206e\libc.a(lib_a-wcrtomb.o) (_wctomb_r)
c:/nburn/gcc-m68k/bin/../lib/gcc/m68k-elf/4.2.1/../../../../m68k-elf/lib/m5206e\libc.a(lib_a-writer.o)
                              c:/nburn/gcc-m68k/bin/../lib/gcc/m68k-elf/4.2.1/../../../../m68k-elf/lib/m5206e\libc.a(lib_a-stdio.o) (_write_r)
c:/nburn/gcc-m68k/bin/../lib/gcc/m68k-elf/4.2.1/../../../../m68k-elf/lib/m5206e\libc.a(lib_a-wsetup.o)
                              c:/nburn/gcc-m68k/bin/../lib/gcc/m68k-elf/4.2.1/../../../../m68k-elf/lib/m5206e\libc.a(lib_a-fvwrite.o) (__swsetup)
c:/nburn/gcc-m68k/bin/../lib/gcc/m68k-elf/4.2.1/../../../../m68k-elf/lib/m5206e\libc.a(lib_a-__atexit.o)
                              c:/nburn/gcc-m68k/bin/../lib/gcc/m68k-elf/4.2.1/../../../../m68k-elf/lib/m5206e\libc.a(lib_a-cxa_atexit.o) (__register_exitproc)
c:/nburn/gcc-m68k/bin/../lib/gcc/m68k-elf/4.2.1/../../../../m68k-elf/lib/m5206e\libc.a(lib_a-closer.o)
                              c:/nburn/gcc-m68k/bin/../lib/gcc/m68k-elf/4.2.1/../../../../m68k-elf/lib/m5206e\libc.a(lib_a-stdio.o) (_close_r)
c:/nburn/gcc-m68k/bin/../lib/gcc/m68k-elf/4.2.1/../../../../m68k-elf/lib/m5206e\libc.a(lib_a-dtoa.o)
                              c:/nburn/gcc-m68k/bin/../lib/gcc/m68k-elf/4.2.1/../../../../m68k-elf/lib/m5206e\libc.a(lib_a-vfprintf.o) (_dtoa_r)
c:/nburn/gcc-m68k/bin/../lib/gcc/m68k-elf/4.2.1/../../../../m68k-elf/lib/m5206e\libc.a(lib_a-fclose.o)
                              c:/nburn/gcc-m68k/bin/../lib/gcc/m68k-elf/4.2.1/../../../../m68k-elf/lib/m5206e\libc.a(lib_a-findfp.o) (fclose)
c:/nburn/gcc-m68k/bin/../lib/gcc/m68k-elf/4.2.1/../../../../m68k-elf/lib/m5206e\libc.a(lib_a-fread.o)
                              c:/nburn/gcc-m68k/bin/../lib/gcc/m68k-elf/4.2.1/../../../../m68k-elf/lib/m5206e\libc.a(lib_a-vfscanf.o) (fread)
c:/nburn/gcc-m68k/bin/../lib/gcc/m68k-elf/4.2.1/../../../../m68k-elf/lib/m5206e\libc.a(lib_a-freer.o)
                              c:/nburn/gcc-m68k/bin/../lib/gcc/m68k-elf/4.2.1/../../../../m68k-elf/lib/m5206e\libc.a(lib_a-fvwrite.o) (_free_r)
c:/nburn/gcc-m68k/bin/../lib/gcc/m68k-elf/4.2.1/../../../../m68k-elf/lib/m5206e\libc.a(lib_a-gdtoa-gethex.o)
                              c:/nburn/gcc-m68k/bin/../lib/gcc/m68k-elf/4.2.1/../../../../m68k-elf/lib/m5206e\libc.a(lib_a-strtod.o) (__gethex)
c:/nburn/gcc-m68k/bin/../lib/gcc/m68k-elf/4.2.1/../../../../m68k-elf/lib/m5206e\libc.a(lib_a-gdtoa-hexnan.o)
                              c:/nburn/gcc-m68k/bin/../lib/gcc/m68k-elf/4.2.1/../../../../m68k-elf/lib/m5206e\libc.a(lib_a-strtod.o) (__hexnan)
c:/nburn/gcc-m68k/bin/../lib/gcc/m68k-elf/4.2.1/../../../../m68k-elf/lib/m5206e\libc.a(lib_a-gettzinfo.o)
                              c:/nburn/gcc-m68k/bin/../lib/gcc/m68k-elf/4.2.1/../../../../m68k-elf/lib/m5206e\libc.a(lib_a-mktm_r.o) (__gettzinfo)
c:/nburn/gcc-m68k/bin/../lib/gcc/m68k-elf/4.2.1/../../../../m68k-elf/lib/m5206e\libc.a(lib_a-iswspace.o)
                              c:/nburn/gcc-m68k/bin/../lib/gcc/m68k-elf/4.2.1/../../../../m68k-elf/lib/m5206e\libc.a(lib_a-vfscanf.o) (iswspace)
c:/nburn/gcc-m68k/bin/../lib/gcc/m68k-elf/4.2.1/../../../../m68k-elf/lib/m5206e\libc.a(lib_a-locale.o)
                              c:/nburn/gcc-m68k/bin/../lib/gcc/m68k-elf/4.2.1/../../../../m68k-elf/lib/m5206e\libc.a(lib_a-vfprintf.o) (localeconv)
c:/nburn/gcc-m68k/bin/../lib/gcc/m68k-elf/4.2.1/../../../../m68k-elf/lib/m5206e\libc.a(lib_a-lseekr.o)
                              c:/nburn/gcc-m68k/bin/../lib/gcc/m68k-elf/4.2.1/../../../../m68k-elf/lib/m5206e\libc.a(lib_a-stdio.o) (_lseek_r)
c:/nburn/gcc-m68k/bin/../lib/gcc/m68k-elf/4.2.1/../../../../m68k-elf/lib/m5206e\libc.a(lib_a-makebuf.o)
                              c:/nburn/gcc-m68k/bin/../lib/gcc/m68k-elf/4.2.1/../../../../m68k-elf/lib/m5206e\libc.a(lib_a-wsetup.o) (__smakebuf)
c:/nburn/gcc-m68k/bin/../lib/gcc/m68k-elf/4.2.1/../../../../m68k-elf/lib/m5206e\libc.a(lib_a-mbrtowc.o)
                              c:/nburn/gcc-m68k/bin/../lib/gcc/m68k-elf/4.2.1/../../../../m68k-elf/lib/m5206e\libc.a(lib_a-vfscanf.o) (_mbrtowc_r)
c:/nburn/gcc-m68k/bin/../lib/gcc/m68k-elf/4.2.1/../../../../m68k-elf/lib/m5206e\libc.a(lib_a-mbtowc_r.o)
                              c:/nburn/gcc-m68k/bin/../lib/gcc/m68k-elf/4.2.1/../../../../m68k-elf/lib/m5206e\libc.a(lib_a-mbrtowc.o) (_mbtowc_r)
c:/nburn/gcc-m68k/bin/../lib/gcc/m68k-elf/4.2.1/../../../../m68k-elf/lib/m5206e\libc.a(lib_a-mprec.o)
                              c:/nburn/gcc-m68k/bin/../lib/gcc/m68k-elf/4.2.1/../../../../m68k-elf/lib/m5206e\libc.a(lib_a-dtoa.o) (__hi0bits)
c:/nburn/gcc-m68k/bin/../lib/gcc/m68k-elf/4.2.1/../../../../m68k-elf/lib/m5206e\libc.a(lib_a-readr.o)
                              c:/nburn/gcc-m68k/bin/../lib/gcc/m68k-elf/4.2.1/../../../../m68k-elf/lib/m5206e\libc.a(lib_a-stdio.o) (_read_r)
c:/nburn/gcc-m68k/bin/../lib/gcc/m68k-elf/4.2.1/../../../../m68k-elf/lib/m5206e\libc.a(lib_a-refill.o)
                              c:/nburn/gcc-m68k/bin/../lib/gcc/m68k-elf/4.2.1/../../../../m68k-elf/lib/m5206e\libc.a(lib_a-rget.o) (__srefill_r)
c:/nburn/gcc-m68k/bin/../lib/gcc/m68k-elf/4.2.1/../../../../m68k-elf/lib/m5206e\libc.a(lib_a-sccl.o)
                              c:/nburn/gcc-m68k/bin/../lib/gcc/m68k-elf/4.2.1/../../../../m68k-elf/lib/m5206e\libc.a(lib_a-vfscanf.o) (__sccl)
c:/nburn/gcc-m68k/bin/../lib/gcc/m68k-elf/4.2.1/../../../../m68k-elf/lib/m5206e\libc.a(lib_a-sf_nan.o)
                              c:/nburn/gcc-m68k/bin/../lib/gcc/m68k-elf/4.2.1/../../../../m68k-elf/lib/m5206e\libc.a(lib_a-vfscanf.o) (nanf)
c:/nburn/gcc-m68k/bin/../lib/gcc/m68k-elf/4.2.1/../../../../m68k-elf/lib/m5206e\libc.a(lib_a-s_isinfd.o)
                              c:/nburn/gcc-m68k/bin/../lib/gcc/m68k-elf/4.2.1/../../../../m68k-elf/lib/m5206e\libc.a(lib_a-vfprintf.o) (__isinfd)
c:/nburn/gcc-m68k/bin/../lib/gcc/m68k-elf/4.2.1/../../../../m68k-elf/lib/m5206e\libc.a(lib_a-s_isnand.o)
                              c:/nburn/gcc-m68k/bin/../lib/gcc/m68k-elf/4.2.1/../../../../m68k-elf/lib/m5206e\libc.a(lib_a-vfprintf.o) (__isnand)
c:/nburn/gcc-m68k/bin/../lib/gcc/m68k-elf/4.2.1/../../../../m68k-elf/lib/m5206e\libc.a(lib_a-strtoll_r.o)
                              c:/nburn/gcc-m68k/bin/../lib/gcc/m68k-elf/4.2.1/../../../../m68k-elf/lib/m5206e\libc.a(lib_a-vfscanf.o) (_strtoll_r)
c:/nburn/gcc-m68k/bin/../lib/gcc/m68k-elf/4.2.1/../../../../m68k-elf/lib/m5206e\libc.a(lib_a-strtoull_r.o)
                              c:/nburn/gcc-m68k/bin/../lib/gcc/m68k-elf/4.2.1/../../../../m68k-elf/lib/m5206e\libc.a(lib_a-vfscanf.o) (_strtoull_r)
c:/nburn/gcc-m68k/bin/../lib/gcc/m68k-elf/4.2.1/../../../../m68k-elf/lib/m5206e\libc.a(lib_a-strtoul.o)
                              c:/nburn/gcc-m68k/bin/../lib/gcc/m68k-elf/4.2.1/../../../../m68k-elf/lib/m5206e\libc.a(lib_a-vfscanf.o) (_strtoul_r)
c:/nburn/gcc-m68k/bin/../lib/gcc/m68k-elf/4.2.1/../../../../m68k-elf/lib/m5206e\libc.a(lib_a-ungetc.o)
                              c:/nburn/gcc-m68k/bin/../lib/gcc/m68k-elf/4.2.1/../../../../m68k-elf/lib/m5206e\libc.a(lib_a-vfscanf.o) (ungetc)
c:/nburn/gcc-m68k/bin/../lib/gcc/m68k-elf/4.2.1/../../../../m68k-elf/lib/m5206e\libc.a(lib_a-callocr.o)
                              c:/nburn/gcc-m68k/bin/../lib/gcc/m68k-elf/4.2.1/../../../../m68k-elf/lib/m5206e\libc.a(lib_a-mprec.o) (_calloc_r)
c:/nburn/gcc-m68k/bin/../lib/gcc/m68k-elf/4.2.1/../../../../m68k-elf/lib/m5206e\libc.a(lib_a-fstatr.o)
                              c:/nburn/gcc-m68k/bin/../lib/gcc/m68k-elf/4.2.1/../../../../m68k-elf/lib/m5206e\libc.a(lib_a-makebuf.o) (_fstat_r)
c:/nburn/gcc-m68k/bin/../lib/gcc/m68k-elf/4.2.1/m5206e\libgcc.a(_eqdf2.o)
                              c:/nburn/gcc-m68k/bin/../lib/gcc/m68k-elf/4.2.1/../../../../m68k-elf/lib/m5206e\libc.a(lib_a-vfprintf.o) (__eqdf2)
c:/nburn/gcc-m68k/bin/../lib/gcc/m68k-elf/4.2.1/m5206e\libgcc.a(_nesf2.o)
                              c:/nburn/gcc-m68k/bin/../lib/gcc/m68k-elf/4.2.1/../../../../m68k-elf/lib/m5206e\libc.a(lib_a-strtod.o) (__nesf2)
c:/nburn/gcc-m68k/bin/../lib/gcc/m68k-elf/4.2.1/m5206e\libgcc.a(_muldi3.o)
                              c:/nburn/gcc-m68k/bin/../lib/gcc/m68k-elf/4.2.1/../../../../m68k-elf/lib/m5206e\libc.a(lib_a-rand.o) (__muldi3)

Allocating common symbols
Common symbol       size              file

NotifyUpdatePtr     0x4               C:\nburn/lib/NetBurner.a(system.o)
BspTickMaxCount     0x2               C:\nburn/lib/MOD5270.a(bsp.o)
cpld_cache          0x4               io.o
errno               0x4               C:\nburn/lib/MOD5270.a(bsp.o)
TERR_REGISTER       0x1               C:\nburn/lib/MOD5270.a(bsp.o)
heap_ptr            0x4               C:\nburn/lib/MOD5270.a(bsp.o)
__hexdig            0x100             c:/nburn/gcc-m68k/bin/../lib/gcc/m68k-elf/4.2.1/../../../../m68k-elf/lib/m5206e\libc.a(lib_a-gdtoa-gethex.o)
tpmr                0x4               C:\nburn/lib/MOD5270.a(bsp.o)
OSIdleTaskStk       0x2000            C:\nburn/lib/NetBurner.a(ucosmain.o)
PlatformName        0x4               C:\nburn/lib/MOD5270.a(bsp.o)
rnd_collect         0x200             C:\nburn/lib/NetBurner.a(system.o)
CPU_CLOCK           0x4               C:\nburn/lib/MOD5270.a(bsp.o)
config_rec_buf      0x800             C:\nburn/lib/NetBurner.a(system.o)
gio                 0x404e            io.o

Discarded input sections

 _ZN7Service4stopEv
                0x00000000        0x0 services.o
 _ZNSt8_Rb_treeImSt4pairIKmtESt10_Select1stIS2_ESt4lessImESaIS2_EE4findERS1_
                0x00000000        0x0 services.o
 _ZNSt8_Rb_treeImSt4pairIKmtESt10_Select1stIS2_ESt4lessImESaIS2_EE11lower_boundERS1_
                0x00000000        0x0 services.o
 _ZN7Service6setTagEv
                0x00000000        0x0 services.o
 _ZNSt11_Deque_baseIPcSaIS0_EE16_M_destroy_nodesEPPS0_S4_
                0x00000000        0x0 services.o
 _ZNSt11_Deque_baseIPcSaIS0_EED2Ev
                0x00000000        0x0 services.o
 _ZNSt8_Rb_treeImSt4pairIKmtESt10_Select1stIS2_ESt4lessImESaIS2_EE8_M_eraseEPSt13_Rb_tree_nodeIS2_E
                0x00000000        0x0 services.o
 _ZN9IpServiceD0Ev
                0x00000000        0x0 services.o
 _ZN6ClientD0Ev
                0x00000000        0x0 services.o
 _ZN6ClientD1Ev
                0x00000000        0x0 services.o
 _ZN9TcpClientD1Ev
                0x00000000        0x0 services.o
 _ZN9IpService6setTagEv
                0x00000000        0x0 services.o
 _ZN7Service13startSameTaskEv
                0x00000000        0x0 services.o
 _ZN7ServiceD0Ev
                0x00000000        0x0 services.o
 _ZN7ServiceD1Ev
                0x00000000        0x0 services.o
 _ZNSt8_Rb_treeImSt4pairIKmtESt10_Select1stIS2_ESt4lessImESaIS2_EE7_M_copyEPKSt13_Rb_tree_nodeIS2_EPSA_
                0x00000000        0x0 services.o
 _ZNSt8_Rb_treeImSt4pairIKmtESt10_Select1stIS2_ESt4lessImESaIS2_EEaSERKS8_
                0x00000000        0x0 services.o
 _ZNSt8_Rb_treeImSt4pairIKmtESt10_Select1stIS2_ESt4lessImESaIS2_EE9_M_insertEPSt18_Rb_tree_node_baseSA_RKS2_
                0x00000000        0x0 services.o
 _ZNSt8_Rb_treeImSt4pairIKmtESt10_Select1stIS2_ESt4lessImESaIS2_EE16_M_insert_uniqueERKS2_
                0x00000000        0x0 services.o
 _ZNSt8_Rb_treeImSt4pairIKmtESt10_Select1stIS2_ESt4lessImESaIS2_EE16_M_insert_uniqueESt17_Rb_tree_iteratorIS2_ERKS2_
                0x00000000        0x0 services.o
 _ZN9IpServiceD1Ev
                0x00000000        0x0 services.o
 _ZN8IpClientD0Ev
                0x00000000        0x0 services.o
 _ZN8IpClientD1Ev
                0x00000000        0x0 services.o
 _ZNSt5dequeIPcSaIS0_EE17_M_reallocate_mapEmb
                0x00000000        0x0 services.o
 _ZNSt5dequeIPcSaIS0_EE16_M_push_back_auxERKS0_
                0x00000000        0x0 services.o
 _ZNSt5dequeIPcSaIS0_EE15_M_pop_back_auxEv
                0x00000000        0x0 services.o
 _ZN9TcpClientD0Ev
                0x00000000        0x0 services.o
 _ZNSt8_Rb_treeISsSt4pairIKSsM10CorrelatorFvPcNS2_13argument_typeEEESt10_Select1stIS7_ESt4lessISsESaIS7_EE4findERS1_
                0x00000000        0x0 services.o
 _ZN11DataServiceD1Ev
                0x00000000        0x0 services.o
 _ZN10UdpServiceD0Ev
                0x00000000        0x0 services.o
 _ZN10UdpServiceD1Ev
                0x00000000        0x0 services.o
 _ZN14MessageServiceD1Ev
                0x00000000        0x0 services.o
 _ZN10TcpServiceD0Ev
                0x00000000        0x0 services.o
 _ZN10TcpServiceD1Ev
                0x00000000        0x0 services.o
 _ZN14MonitorServiceD1Ev
                0x00000000        0x0 services.o
 _ZN14MonitorServiceD0Ev
                0x00000000        0x0 services.o
 _ZN11DataServiceD0Ev
                0x00000000        0x0 services.o
 _ZN14MessageServiceD0Ev
                0x00000000        0x0 services.o
 _ZN14ControlServiceD1Ev
                0x00000000        0x0 services.o
 _ZN16SimpleTcpServiceD0Ev
                0x00000000        0x0 services.o
 _ZN14ControlServiceD0Ev
                0x00000000        0x0 services.o
 _ZN16SimpleTcpServiceD1Ev
                0x00000000        0x0 services.o
 _ZTV14MessageService
                0x00000000        0x0 services.o
 _ZTV14MonitorService
                0x00000000        0x0 services.o
 _ZTV11DataService
                0x00000000        0x0 services.o
 _ZTV14ControlService
                0x00000000        0x0 services.o
 _ZTV16SimpleTcpService
                0x00000000        0x0 services.o
 _ZTV10UdpService
                0x00000000        0x0 services.o
 _ZTV10TcpService
                0x00000000        0x0 services.o
 _ZTV7Service   0x00000000        0x0 services.o
 _ZTV9IpService
                0x00000000        0x0 services.o
 _ZTV6Client    0x00000000        0x0 services.o
 _ZTV9TcpClient
                0x00000000        0x0 services.o
 _ZTV8IpClient  0x00000000        0x0 services.o
 _ZSt9transformIN9__gnu_cxx17__normal_iteratorIPlSt6vectorIlSaIlEEEEPKlS6_St4plusIlEET1_T_SC_T0_SB_T2_
                0x00000000        0x0 observations.o
 _ZN11ObservationD0Ev
                0x00000000        0x0 observations.o
 _ZN11ObservationD1Ev
                0x00000000        0x0 observations.o
 _ZN16BasicObservationD0Ev
                0x00000000        0x0 observations.o
 _ZN16ScopeObservationD0Ev
                0x00000000        0x0 observations.o
 _ZN16ScopeObservationD1Ev
                0x00000000        0x0 observations.o
 _ZN16StatsObservationD0Ev
                0x00000000        0x0 observations.o
 _ZN16BasicObservationD1Ev
                0x00000000        0x0 observations.o
 _ZN16StatsObservationD1Ev
                0x00000000        0x0 observations.o
 _ZTV16ScopeObservation
                0x00000000        0x0 observations.o
 _ZTV16StatsObservation
                0x00000000        0x0 observations.o
 _ZTV16BasicObservation
                0x00000000        0x0 observations.o
 _ZTV11Observation
                0x00000000        0x0 observations.o
 _ZSt4fillIN9__gnu_cxx17__normal_iteratorIPlSt6vectorIlSaIlEEEElEvT_S7_RKT0_
                0x00000000        0x0 obs.o
 _ZSt6fill_nIPlmlET_S1_T0_RKT1_
                0x00000000        0x0 obs.o
 _ZSt4fillIPllEvT_S1_RKT0_
                0x00000000        0x0 obs.o
 _ZSt4fillIPjjEvT_S1_RKT0_
                0x00000000        0x0 obs.o
 _ZSt4fillIPmmEvT_S1_RKT0_
                0x00000000        0x0 obs.o
 _ZSt6fill_nIPjmjET_S1_T0_RKT1_
                0x00000000        0x0 obs.o
 _ZSt6fill_nIPmmmET_S1_T0_RKT1_
                0x00000000        0x0 obs.o
 _ZN11ObservationD0Ev
                0x00000000        0x0 obs.o
 _ZN11ObservationD1Ev
                0x00000000        0x0 obs.o
 _ZNSt6vectorImSaImEE7reserveEm
                0x00000000        0x0 obs.o
 _ZN16ScopeObservationD1Ev
                0x00000000        0x0 obs.o
 _ZNSt6vectorIjSaIjEE7reserveEm
                0x00000000        0x0 obs.o
 _ZNSt6vectorImSaImEE14_M_fill_insertEN9__gnu_cxx17__normal_iteratorIPmS1_EEmRKm
                0x00000000        0x0 obs.o
 _ZNSt6vectorIlSaIlEE7reserveEm
                0x00000000        0x0 obs.o
 _ZNSt6vectorIjSaIjEE14_M_fill_insertEN9__gnu_cxx17__normal_iteratorIPjS1_EEmRKj
                0x00000000        0x0 obs.o
 _ZNSt6vectorIlSaIlEE14_M_fill_insertEN9__gnu_cxx17__normal_iteratorIPlS1_EEmRKl
                0x00000000        0x0 obs.o
 _ZNSt6vectorIlSaIlEE14_M_fill_assignEmRKl
                0x00000000        0x0 obs.o
 _ZN16BasicObservationD1Ev
                0x00000000        0x0 obs.o
 _ZN16StatsObservationD1Ev
                0x00000000        0x0 obs.o
 _ZTV11Observation
                0x00000000        0x0 obs.o
 .text._ZN11ObservationD0Ev
                0x00000000        0x0 obs.o
 .text._ZN11ObservationD1Ev
                0x00000000        0x0 obs.o
 .text._ZN16ScopeObservationD1Ev
                0x00000000        0x0 obs.o
 .text._ZN16BasicObservationD1Ev
                0x00000000        0x0 obs.o
 .text._ZN16StatsObservationD1Ev
                0x00000000        0x0 obs.o
 .rodata._ZTV11Observation
                0x00000000        0x0 obs.o
 _ZN7Service4stopEv
                0x00000000        0x0 main.o
 _ZSt6fill_nIPlmlET_S1_T0_RKT1_
                0x00000000        0x0 main.o
 _ZSt4fillIPllEvT_S1_RKT0_
                0x00000000        0x0 main.o
 _ZSt4fillIPjjEvT_S1_RKT0_
                0x00000000        0x0 main.o
 _ZSt4fillIPmmEvT_S1_RKT0_
                0x00000000        0x0 main.o
 _ZSt6fill_nIPjmjET_S1_T0_RKT1_
                0x00000000        0x0 main.o
 _ZSt6fill_nIPmmmET_S1_T0_RKT1_
                0x00000000        0x0 main.o
 _ZN9IpService6setTagEv
                0x00000000        0x0 main.o
 _ZN7Service13startSameTaskEv
                0x00000000        0x0 main.o
 _ZNSt11_Deque_baseIPcSaIS0_EE16_M_destroy_nodesEPPS0_S4_
                0x00000000        0x0 main.o
 _ZNSt11_Deque_baseIPcSaIS0_EED2Ev
                0x00000000        0x0 main.o
 _ZNSt8_Rb_treeImSt4pairIKmtESt10_Select1stIS2_ESt4lessImESaIS2_EE8_M_eraseEPSt13_Rb_tree_nodeIS2_E
                0x00000000        0x0 main.o
 _ZN9IpServiceD1Ev
                0x00000000        0x0 main.o
 _ZNSt11_Deque_baseIPcSaIS0_EE15_M_create_nodesEPPS0_S4_
                0x00000000        0x0 main.o
 _ZNSt11_Deque_baseIPcSaIS0_EE17_M_initialize_mapEm
                0x00000000        0x0 main.o
 _ZNSt6vectorIjSaIjEE7reserveEm
                0x00000000        0x0 main.o
 _ZNSt8_Rb_treeISsSt4pairIKSsSsESt10_Select1stIS2_ESt4lessISsESaIS2_EE7_M_copyEPKSt13_Rb_tree_nodeIS2_EPSA_
                0x00000000        0x0 main.o
 _ZN9IpServiceD0Ev
                0x00000000        0x0 main.o
 _ZNSt6vectorImSaImEE7reserveEm
                0x00000000        0x0 main.o
 _ZNSt6vectorImSaImEE14_M_fill_insertEN9__gnu_cxx17__normal_iteratorIPmS1_EEmRKm
                0x00000000        0x0 main.o
 _ZNSt6vectorIlSaIlEE7reserveEm
                0x00000000        0x0 main.o
 _ZNSt6vectorIjSaIjEE14_M_fill_insertEN9__gnu_cxx17__normal_iteratorIPjS1_EEmRKj
                0x00000000        0x0 main.o
 _ZNSt6vectorIlSaIlEE14_M_fill_insertEN9__gnu_cxx17__normal_iteratorIPlS1_EEmRKl
                0x00000000        0x0 main.o
 _ZSt26__uninitialized_fill_n_auxIP8BandDatamS0_EvT_T0_RKT1_St12__false_type
                0x00000000        0x0 main.o
 _ZNSt8_Rb_treeISsSt4pairIKSsM10CorrelatorFvPcNS2_13argument_typeEEESt10_Select1stIS7_ESt4lessISsESaIS7_EE9_M_insertEPSt18_Rb_tree_node_baseSF_RKS7_
                0x00000000        0x0 main.o
 _ZNSt8_Rb_treeISsSt4pairIKSsM10CorrelatorFvPcNS2_13argument_typeEEESt10_Select1stIS7_ESt4lessISsESaIS7_EE16_M_insert_uniqueERKS7_
                0x00000000        0x0 main.o
 _ZNSt8_Rb_treeISsSt4pairIKSsM10CorrelatorFvPcNS2_13argument_typeEEESt10_Select1stIS7_ESt4lessISsESaIS7_EE11lower_boundERS1_
                0x00000000        0x0 main.o
 _ZNSt8_Rb_treeISsSt4pairIKSsM10CorrelatorFvPcNS2_13argument_typeEEESt10_Select1stIS7_ESt4lessISsESaIS7_EE16_M_insert_uniqueESt17_Rb_tree_iteratorIS7_ERKS7_
                0x00000000        0x0 main.o
 _ZNSt8_Rb_treeISsSt4pairIKSsM10CorrelatorFvPcNS2_13argument_typeEEESt10_Select1stIS7_ESt4lessISsESaIS7_EE8_M_eraseEPSt13_Rb_tree_nodeIS7_E
                0x00000000        0x0 main.o
 _ZN18CommandInterpreterI10CorrelatorNS0_12command_typeEPcNS0_13argument_typeESsED1Ev
                0x00000000        0x0 main.o
 _ZNSt3mapISsM10CorrelatorFvPcNS0_13argument_typeEESt4lessISsESaISt4pairIKSsS4_EEEixERS8_
                0x00000000        0x0 main.o
 _ZNSt8_Rb_treeISsSt4pairIKSsSsESt10_Select1stIS2_ESt4lessISsESaIS2_EE8_M_eraseEPSt13_Rb_tree_nodeIS2_E
                0x00000000        0x0 main.o
 _ZN10CorrelatorD1Ev
                0x00000000        0x0 main.o
 _ZTV9IpService
                0x00000000        0x0 main.o
 .text._ZN7Service4stopEv
                0x00000000        0x0 main.o
 .text._ZSt6fill_nIPlmlET_S1_T0_RKT1_
                0x00000000        0x0 main.o
 .text._ZSt4fillIPllEvT_S1_RKT0_
                0x00000000        0x0 main.o
 .text._ZSt4fillIPjjEvT_S1_RKT0_
                0x00000000        0x0 main.o
 .text._ZSt4fillIPmmEvT_S1_RKT0_
                0x00000000        0x0 main.o
 .text._ZSt6fill_nIPjmjET_S1_T0_RKT1_
                0x00000000        0x0 main.o
 .text._ZSt6fill_nIPmmmET_S1_T0_RKT1_
                0x00000000        0x0 main.o
 .text._ZN9IpService6setTagEv
                0x00000000        0x0 main.o
 .text._ZN7Service13startSameTaskEv
                0x00000000        0x0 main.o
 .text._ZNSt11_Deque_baseIPcSaIS0_EE16_M_destroy_nodesEPPS0_S4_
                0x00000000        0x0 main.o
 .text._ZNSt11_Deque_baseIPcSaIS0_EED2Ev
                0x00000000        0x0 main.o
 .text._ZNSt8_Rb_treeImSt4pairIKmtESt10_Select1stIS2_ESt4lessImESaIS2_EE8_M_eraseEPSt13_Rb_tree_nodeIS2_E
                0x00000000        0x0 main.o
 .text._ZN9IpServiceD1Ev
                0x00000000        0x0 main.o
 .text._ZNSt6vectorIjSaIjEE7reserveEm
                0x00000000        0x0 main.o
 .text._ZN9IpServiceD0Ev
                0x00000000        0x0 main.o
 .text._ZNSt6vectorImSaImEE7reserveEm
                0x00000000        0x0 main.o
 .text._ZNSt6vectorImSaImEE14_M_fill_insertEN9__gnu_cxx17__normal_iteratorIPmS1_EEmRKm
                0x00000000        0x0 main.o
 .text._ZNSt6vectorIlSaIlEE7reserveEm
                0x00000000        0x0 main.o
 .text._ZNSt6vectorIjSaIjEE14_M_fill_insertEN9__gnu_cxx17__normal_iteratorIPjS1_EEmRKj
                0x00000000        0x0 main.o
 .text._ZNSt6vectorIlSaIlEE14_M_fill_insertEN9__gnu_cxx17__normal_iteratorIPlS1_EEmRKl
                0x00000000        0x0 main.o
 .rodata._ZTV9IpService
                0x00000000        0x0 main.o
 _ZNKSt8_Rb_treeISsSt4pairIKSsSsESt10_Select1stIS2_ESt4lessISsESaIS2_EE4findERS1_
                0x00000000        0x0 data.o
 _ZNSt8_Rb_treeISsSt4pairIKSsM10CorrelatorFvPcNS2_13argument_typeEEESt10_Select1stIS7_ESt4lessISsESaIS7_EE8_M_eraseEPSt13_Rb_tree_nodeIS7_E
                0x00000000        0x0 control.o
 _ZNSt8_Rb_treeISsSt4pairIKSsSsESt10_Select1stIS2_ESt4lessISsESaIS2_EE11lower_boundERS1_
                0x00000000        0x0 control.o
 _ZNSt8_Rb_treeISsSt4pairIKSsSsESt10_Select1stIS2_ESt4lessISsESaIS2_EE9_M_insertEPSt18_Rb_tree_node_baseSA_RKS2_
                0x00000000        0x0 control.o
 _ZNSt8_Rb_treeISsSt4pairIKSsM10CorrelatorFvPcNS2_13argument_typeEEESt10_Select1stIS7_ESt4lessISsESaIS7_EE9_M_insertEPSt18_Rb_tree_node_baseSF_RKS7_
                0x00000000        0x0 control.o
 _ZNSt8_Rb_treeISsSt4pairIKSsSsESt10_Select1stIS2_ESt4lessISsESaIS2_EE16_M_insert_uniqueERKS2_
                0x00000000        0x0 control.o
 _ZNSt8_Rb_treeISsSt4pairIKSsSsESt10_Select1stIS2_ESt4lessISsESaIS2_EE16_M_insert_uniqueESt17_Rb_tree_iteratorIS2_ERKS2_
                0x00000000        0x0 control.o
 _ZNKSt8_Rb_treeISsSt4pairIKSsSsESt10_Select1stIS2_ESt4lessISsESaIS2_EE4findERS1_
                0x00000000        0x0 control.o
 _ZNKSt8_Rb_treeISsSt4pairIKSsM10CorrelatorFvPcNS2_13argument_typeEEESt10_Select1stIS7_ESt4lessISsESaIS7_EE4findERS1_
                0x00000000        0x0 control.o
 _ZNSt8_Rb_treeISsSt4pairIKSsM10CorrelatorFvPcNS2_13argument_typeEEESt10_Select1stIS7_ESt4lessISsESaIS7_EE11lower_boundERS1_
                0x00000000        0x0 control.o
 _ZNSt8_Rb_treeISsSt4pairIKSsM10CorrelatorFvPcNS2_13argument_typeEEESt10_Select1stIS7_ESt4lessISsESaIS7_EE16_M_insert_uniqueERKS7_
                0x00000000        0x0 control.o
 _ZNSt8_Rb_treeISsSt4pairIKSsM10CorrelatorFvPcNS2_13argument_typeEEESt10_Select1stIS7_ESt4lessISsESaIS7_EE16_M_insert_uniqueESt17_Rb_tree_iteratorIS7_ERKS7_
                0x00000000        0x0 control.o
 .text._ZNSt8_Rb_treeISsSt4pairIKSsM10CorrelatorFvPcNS2_13argument_typeEEESt10_Select1stIS7_ESt4lessISsESaIS7_EE8_M_eraseEPSt13_Rb_tree_nodeIS7_E
                0x00000000        0x0 control.o
 .text._ZNSt8_Rb_treeISsSt4pairIKSsM10CorrelatorFvPcNS2_13argument_typeEEESt10_Select1stIS7_ESt4lessISsESaIS7_EE9_M_insertEPSt18_Rb_tree_node_baseSF_RKS7_
                0x00000000        0x0 control.o
 .text._ZNKSt8_Rb_treeISsSt4pairIKSsSsESt10_Select1stIS2_ESt4lessISsESaIS2_EE4findERS1_
                0x00000000        0x0 control.o
 .text._ZNSt8_Rb_treeISsSt4pairIKSsM10CorrelatorFvPcNS2_13argument_typeEEESt10_Select1stIS7_ESt4lessISsESaIS7_EE11lower_boundERS1_
                0x00000000        0x0 control.o
 .text._ZNSt8_Rb_treeISsSt4pairIKSsM10CorrelatorFvPcNS2_13argument_typeEEESt10_Select1stIS7_ESt4lessISsESaIS7_EE16_M_insert_uniqueERKS7_
                0x00000000        0x0 control.o
 .text._ZNSt8_Rb_treeISsSt4pairIKSsM10CorrelatorFvPcNS2_13argument_typeEEESt10_Select1stIS7_ESt4lessISsESaIS7_EE16_M_insert_uniqueESt17_Rb_tree_iteratorIS7_ERKS7_
                0x00000000        0x0 control.o
 _ZSt6fill_nIPlmlET_S1_T0_RKT1_
                0x00000000        0x0 boot.o
 _ZSt4fillIPllEvT_S1_RKT0_
                0x00000000        0x0 boot.o
 _ZNSt6vectorIlSaIlEE7reserveEm
                0x00000000        0x0 boot.o
 _ZNSt6vectorIlSaIlEE14_M_fill_insertEN9__gnu_cxx17__normal_iteratorIPlS1_EEmRKl
                0x00000000        0x0 boot.o
 .text._ZSt6fill_nIPlmlET_S1_T0_RKT1_
                0x00000000        0x0 boot.o
 .text._ZSt4fillIPllEvT_S1_RKT0_
                0x00000000        0x0 boot.o
 .text._ZNSt6vectorIlSaIlEE7reserveEm
                0x00000000        0x0 boot.o
 .text._ZNSt6vectorIlSaIlEE14_M_fill_insertEN9__gnu_cxx17__normal_iteratorIPlS1_EEmRKl
                0x00000000        0x0 boot.o
 _ZNSt15underflow_errorD0Ev
                0x00000000        0x0 c:/nburn/gcc-m68k/bin/../lib/gcc/m68k-elf/4.2.1/../../../../m68k-elf/lib/m5206e\libstdc++.a(functexcept.o)
 _ZNSt15underflow_errorD1Ev
                0x00000000        0x0 c:/nburn/gcc-m68k/bin/../lib/gcc/m68k-elf/4.2.1/../../../../m68k-elf/lib/m5206e\libstdc++.a(functexcept.o)
 _ZNSt14overflow_errorD0Ev
                0x00000000        0x0 c:/nburn/gcc-m68k/bin/../lib/gcc/m68k-elf/4.2.1/../../../../m68k-elf/lib/m5206e\libstdc++.a(functexcept.o)
 _ZNSt14overflow_errorD1Ev
                0x00000000        0x0 c:/nburn/gcc-m68k/bin/../lib/gcc/m68k-elf/4.2.1/../../../../m68k-elf/lib/m5206e\libstdc++.a(functexcept.o)
 _ZNSt11range_errorD0Ev
                0x00000000        0x0 c:/nburn/gcc-m68k/bin/../lib/gcc/m68k-elf/4.2.1/../../../../m68k-elf/lib/m5206e\libstdc++.a(functexcept.o)
 _ZNSt11range_errorD1Ev
                0x00000000        0x0 c:/nburn/gcc-m68k/bin/../lib/gcc/m68k-elf/4.2.1/../../../../m68k-elf/lib/m5206e\libstdc++.a(functexcept.o)
 _ZNSt12out_of_rangeD0Ev
                0x00000000        0x0 c:/nburn/gcc-m68k/bin/../lib/gcc/m68k-elf/4.2.1/../../../../m68k-elf/lib/m5206e\libstdc++.a(functexcept.o)
 _ZNSt12out_of_rangeD1Ev
                0x00000000        0x0 c:/nburn/gcc-m68k/bin/../lib/gcc/m68k-elf/4.2.1/../../../../m68k-elf/lib/m5206e\libstdc++.a(functexcept.o)
 _ZNSt12length_errorD0Ev
                0x00000000        0x0 c:/nburn/gcc-m68k/bin/../lib/gcc/m68k-elf/4.2.1/../../../../m68k-elf/lib/m5206e\libstdc++.a(functexcept.o)
 _ZNSt12length_errorD1Ev
                0x00000000        0x0 c:/nburn/gcc-m68k/bin/../lib/gcc/m68k-elf/4.2.1/../../../../m68k-elf/lib/m5206e\libstdc++.a(functexcept.o)
 _ZNSt16invalid_argumentD0Ev
                0x00000000        0x0 c:/nburn/gcc-m68k/bin/../lib/gcc/m68k-elf/4.2.1/../../../../m68k-elf/lib/m5206e\libstdc++.a(functexcept.o)
 _ZNSt16invalid_argumentD1Ev
                0x00000000        0x0 c:/nburn/gcc-m68k/bin/../lib/gcc/m68k-elf/4.2.1/../../../../m68k-elf/lib/m5206e\libstdc++.a(functexcept.o)
 _ZNSt12domain_errorD0Ev
                0x00000000        0x0 c:/nburn/gcc-m68k/bin/../lib/gcc/m68k-elf/4.2.1/../../../../m68k-elf/lib/m5206e\libstdc++.a(functexcept.o)
 _ZNSt12domain_errorD1Ev
                0x00000000        0x0 c:/nburn/gcc-m68k/bin/../lib/gcc/m68k-elf/4.2.1/../../../../m68k-elf/lib/m5206e\libstdc++.a(functexcept.o)
 _ZTISt15underflow_error
                0x00000000        0x0 c:/nburn/gcc-m68k/bin/../lib/gcc/m68k-elf/4.2.1/../../../../m68k-elf/lib/m5206e\libstdc++.a(functexcept.o)
 _ZTSSt15underflow_error
                0x00000000        0x0 c:/nburn/gcc-m68k/bin/../lib/gcc/m68k-elf/4.2.1/../../../../m68k-elf/lib/m5206e\libstdc++.a(functexcept.o)
 _ZTVSt15underflow_error
                0x00000000        0x0 c:/nburn/gcc-m68k/bin/../lib/gcc/m68k-elf/4.2.1/../../../../m68k-elf/lib/m5206e\libstdc++.a(functexcept.o)
 _ZTISt14overflow_error
                0x00000000        0x0 c:/nburn/gcc-m68k/bin/../lib/gcc/m68k-elf/4.2.1/../../../../m68k-elf/lib/m5206e\libstdc++.a(functexcept.o)
 _ZTSSt14overflow_error
                0x00000000        0x0 c:/nburn/gcc-m68k/bin/../lib/gcc/m68k-elf/4.2.1/../../../../m68k-elf/lib/m5206e\libstdc++.a(functexcept.o)
 _ZTVSt14overflow_error
                0x00000000        0x0 c:/nburn/gcc-m68k/bin/../lib/gcc/m68k-elf/4.2.1/../../../../m68k-elf/lib/m5206e\libstdc++.a(functexcept.o)
 _ZTISt11range_error
                0x00000000        0x0 c:/nburn/gcc-m68k/bin/../lib/gcc/m68k-elf/4.2.1/../../../../m68k-elf/lib/m5206e\libstdc++.a(functexcept.o)
 _ZTSSt11range_error
                0x00000000        0x0 c:/nburn/gcc-m68k/bin/../lib/gcc/m68k-elf/4.2.1/../../../../m68k-elf/lib/m5206e\libstdc++.a(functexcept.o)
 _ZTVSt11range_error
                0x00000000        0x0 c:/nburn/gcc-m68k/bin/../lib/gcc/m68k-elf/4.2.1/../../../../m68k-elf/lib/m5206e\libstdc++.a(functexcept.o)
 _ZTISt12out_of_range
                0x00000000        0x0 c:/nburn/gcc-m68k/bin/../lib/gcc/m68k-elf/4.2.1/../../../../m68k-elf/lib/m5206e\libstdc++.a(functexcept.o)
 _ZTSSt12out_of_range
                0x00000000        0x0 c:/nburn/gcc-m68k/bin/../lib/gcc/m68k-elf/4.2.1/../../../../m68k-elf/lib/m5206e\libstdc++.a(functexcept.o)
 _ZTVSt12out_of_range
                0x00000000        0x0 c:/nburn/gcc-m68k/bin/../lib/gcc/m68k-elf/4.2.1/../../../../m68k-elf/lib/m5206e\libstdc++.a(functexcept.o)
 _ZTISt12length_error
                0x00000000        0x0 c:/nburn/gcc-m68k/bin/../lib/gcc/m68k-elf/4.2.1/../../../../m68k-elf/lib/m5206e\libstdc++.a(functexcept.o)
 _ZTSSt12length_error
                0x00000000        0x0 c:/nburn/gcc-m68k/bin/../lib/gcc/m68k-elf/4.2.1/../../../../m68k-elf/lib/m5206e\libstdc++.a(functexcept.o)
 _ZTVSt12length_error
                0x00000000        0x0 c:/nburn/gcc-m68k/bin/../lib/gcc/m68k-elf/4.2.1/../../../../m68k-elf/lib/m5206e\libstdc++.a(functexcept.o)
 _ZTISt16invalid_argument
                0x00000000        0x0 c:/nburn/gcc-m68k/bin/../lib/gcc/m68k-elf/4.2.1/../../../../m68k-elf/lib/m5206e\libstdc++.a(functexcept.o)
 _ZTSSt16invalid_argument
                0x00000000        0x0 c:/nburn/gcc-m68k/bin/../lib/gcc/m68k-elf/4.2.1/../../../../m68k-elf/lib/m5206e\libstdc++.a(functexcept.o)
 _ZTVSt16invalid_argument
                0x00000000        0x0 c:/nburn/gcc-m68k/bin/../lib/gcc/m68k-elf/4.2.1/../../../../m68k-elf/lib/m5206e\libstdc++.a(functexcept.o)
 _ZTISt12domain_error
                0x00000000        0x0 c:/nburn/gcc-m68k/bin/../lib/gcc/m68k-elf/4.2.1/../../../../m68k-elf/lib/m5206e\libstdc++.a(functexcept.o)
 _ZTSSt12domain_error
                0x00000000        0x0 c:/nburn/gcc-m68k/bin/../lib/gcc/m68k-elf/4.2.1/../../../../m68k-elf/lib/m5206e\libstdc++.a(functexcept.o)
 _ZTVSt12domain_error
                0x00000000        0x0 c:/nburn/gcc-m68k/bin/../lib/gcc/m68k-elf/4.2.1/../../../../m68k-elf/lib/m5206e\libstdc++.a(functexcept.o)
 _ZTVNSt8ios_base7failureE
                0x00000000        0x0 c:/nburn/gcc-m68k/bin/../lib/gcc/m68k-elf/4.2.1/../../../../m68k-elf/lib/m5206e\libstdc++.a(ios_failure.o)
 _ZTSNSt8ios_base7failureE
                0x00000000        0x0 c:/nburn/gcc-m68k/bin/../lib/gcc/m68k-elf/4.2.1/../../../../m68k-elf/lib/m5206e\libstdc++.a(ios_failure.o)
 _ZTINSt8ios_base7failureE
                0x00000000        0x0 c:/nburn/gcc-m68k/bin/../lib/gcc/m68k-elf/4.2.1/../../../../m68k-elf/lib/m5206e\libstdc++.a(ios_failure.o)
 _ZNSt11range_errorD0Ev
                0x00000000        0x0 c:/nburn/gcc-m68k/bin/../lib/gcc/m68k-elf/4.2.1/../../../../m68k-elf/lib/m5206e\libstdc++.a(stdexcept.o)
 _ZNSt11range_errorD1Ev
                0x00000000        0x0 c:/nburn/gcc-m68k/bin/../lib/gcc/m68k-elf/4.2.1/../../../../m68k-elf/lib/m5206e\libstdc++.a(stdexcept.o)
 _ZNSt14overflow_errorD0Ev
                0x00000000        0x0 c:/nburn/gcc-m68k/bin/../lib/gcc/m68k-elf/4.2.1/../../../../m68k-elf/lib/m5206e\libstdc++.a(stdexcept.o)
 _ZNSt14overflow_errorD1Ev
                0x00000000        0x0 c:/nburn/gcc-m68k/bin/../lib/gcc/m68k-elf/4.2.1/../../../../m68k-elf/lib/m5206e\libstdc++.a(stdexcept.o)
 _ZNSt15underflow_errorD0Ev
                0x00000000        0x0 c:/nburn/gcc-m68k/bin/../lib/gcc/m68k-elf/4.2.1/../../../../m68k-elf/lib/m5206e\libstdc++.a(stdexcept.o)
 _ZNSt15underflow_errorD1Ev
                0x00000000        0x0 c:/nburn/gcc-m68k/bin/../lib/gcc/m68k-elf/4.2.1/../../../../m68k-elf/lib/m5206e\libstdc++.a(stdexcept.o)
 _ZNSt12domain_errorD0Ev
                0x00000000        0x0 c:/nburn/gcc-m68k/bin/../lib/gcc/m68k-elf/4.2.1/../../../../m68k-elf/lib/m5206e\libstdc++.a(stdexcept.o)
 _ZNSt12domain_errorD1Ev
                0x00000000        0x0 c:/nburn/gcc-m68k/bin/../lib/gcc/m68k-elf/4.2.1/../../../../m68k-elf/lib/m5206e\libstdc++.a(stdexcept.o)
 _ZNSt16invalid_argumentD0Ev
                0x00000000        0x0 c:/nburn/gcc-m68k/bin/../lib/gcc/m68k-elf/4.2.1/../../../../m68k-elf/lib/m5206e\libstdc++.a(stdexcept.o)
 _ZNSt16invalid_argumentD1Ev
                0x00000000        0x0 c:/nburn/gcc-m68k/bin/../lib/gcc/m68k-elf/4.2.1/../../../../m68k-elf/lib/m5206e\libstdc++.a(stdexcept.o)
 _ZNSt12length_errorD0Ev
                0x00000000        0x0 c:/nburn/gcc-m68k/bin/../lib/gcc/m68k-elf/4.2.1/../../../../m68k-elf/lib/m5206e\libstdc++.a(stdexcept.o)
 _ZNSt12length_errorD1Ev
                0x00000000        0x0 c:/nburn/gcc-m68k/bin/../lib/gcc/m68k-elf/4.2.1/../../../../m68k-elf/lib/m5206e\libstdc++.a(stdexcept.o)
 _ZNSt12out_of_rangeD0Ev
                0x00000000        0x0 c:/nburn/gcc-m68k/bin/../lib/gcc/m68k-elf/4.2.1/../../../../m68k-elf/lib/m5206e\libstdc++.a(stdexcept.o)
 _ZNSt12out_of_rangeD1Ev
                0x00000000        0x0 c:/nburn/gcc-m68k/bin/../lib/gcc/m68k-elf/4.2.1/../../../../m68k-elf/lib/m5206e\libstdc++.a(stdexcept.o)
 _ZTVSt13runtime_error
                0x00000000        0x0 c:/nburn/gcc-m68k/bin/../lib/gcc/m68k-elf/4.2.1/../../../../m68k-elf/lib/m5206e\libstdc++.a(stdexcept.o)
 _ZTVSt11logic_error
                0x00000000        0x0 c:/nburn/gcc-m68k/bin/../lib/gcc/m68k-elf/4.2.1/../../../../m68k-elf/lib/m5206e\libstdc++.a(stdexcept.o)
 _ZTSSt13runtime_error
                0x00000000        0x0 c:/nburn/gcc-m68k/bin/../lib/gcc/m68k-elf/4.2.1/../../../../m68k-elf/lib/m5206e\libstdc++.a(stdexcept.o)
 _ZTISt13runtime_error
                0x00000000        0x0 c:/nburn/gcc-m68k/bin/../lib/gcc/m68k-elf/4.2.1/../../../../m68k-elf/lib/m5206e\libstdc++.a(stdexcept.o)
 _ZTSSt11logic_error
                0x00000000        0x0 c:/nburn/gcc-m68k/bin/../lib/gcc/m68k-elf/4.2.1/../../../../m68k-elf/lib/m5206e\libstdc++.a(stdexcept.o)
 _ZTISt11logic_error
                0x00000000        0x0 c:/nburn/gcc-m68k/bin/../lib/gcc/m68k-elf/4.2.1/../../../../m68k-elf/lib/m5206e\libstdc++.a(stdexcept.o)
 _ZTVSt15underflow_error
                0x00000000        0x0 c:/nburn/gcc-m68k/bin/../lib/gcc/m68k-elf/4.2.1/../../../../m68k-elf/lib/m5206e\libstdc++.a(stdexcept.o)
 _ZTISt15underflow_error
                0x00000000        0x0 c:/nburn/gcc-m68k/bin/../lib/gcc/m68k-elf/4.2.1/../../../../m68k-elf/lib/m5206e\libstdc++.a(stdexcept.o)
 _ZTSSt15underflow_error
                0x00000000        0x0 c:/nburn/gcc-m68k/bin/../lib/gcc/m68k-elf/4.2.1/../../../../m68k-elf/lib/m5206e\libstdc++.a(stdexcept.o)
 _ZTVSt14overflow_error
                0x00000000        0x0 c:/nburn/gcc-m68k/bin/../lib/gcc/m68k-elf/4.2.1/../../../../m68k-elf/lib/m5206e\libstdc++.a(stdexcept.o)
 _ZTISt14overflow_error
                0x00000000        0x0 c:/nburn/gcc-m68k/bin/../lib/gcc/m68k-elf/4.2.1/../../../../m68k-elf/lib/m5206e\libstdc++.a(stdexcept.o)
 _ZTSSt14overflow_error
                0x00000000        0x0 c:/nburn/gcc-m68k/bin/../lib/gcc/m68k-elf/4.2.1/../../../../m68k-elf/lib/m5206e\libstdc++.a(stdexcept.o)
 _ZTVSt11range_error
                0x00000000        0x0 c:/nburn/gcc-m68k/bin/../lib/gcc/m68k-elf/4.2.1/../../../../m68k-elf/lib/m5206e\libstdc++.a(stdexcept.o)
 _ZTISt11range_error
                0x00000000        0x0 c:/nburn/gcc-m68k/bin/../lib/gcc/m68k-elf/4.2.1/../../../../m68k-elf/lib/m5206e\libstdc++.a(stdexcept.o)
 _ZTSSt11range_error
                0x00000000        0x0 c:/nburn/gcc-m68k/bin/../lib/gcc/m68k-elf/4.2.1/../../../../m68k-elf/lib/m5206e\libstdc++.a(stdexcept.o)
 _ZTVSt12out_of_range
                0x00000000        0x0 c:/nburn/gcc-m68k/bin/../lib/gcc/m68k-elf/4.2.1/../../../../m68k-elf/lib/m5206e\libstdc++.a(stdexcept.o)
 _ZTISt12out_of_range
                0x00000000        0x0 c:/nburn/gcc-m68k/bin/../lib/gcc/m68k-elf/4.2.1/../../../../m68k-elf/lib/m5206e\libstdc++.a(stdexcept.o)
 _ZTSSt12out_of_range
                0x00000000        0x0 c:/nburn/gcc-m68k/bin/../lib/gcc/m68k-elf/4.2.1/../../../../m68k-elf/lib/m5206e\libstdc++.a(stdexcept.o)
 _ZTVSt12length_error
                0x00000000        0x0 c:/nburn/gcc-m68k/bin/../lib/gcc/m68k-elf/4.2.1/../../../../m68k-elf/lib/m5206e\libstdc++.a(stdexcept.o)
 _ZTISt12length_error
                0x00000000        0x0 c:/nburn/gcc-m68k/bin/../lib/gcc/m68k-elf/4.2.1/../../../../m68k-elf/lib/m5206e\libstdc++.a(stdexcept.o)
 _ZTSSt12length_error
                0x00000000        0x0 c:/nburn/gcc-m68k/bin/../lib/gcc/m68k-elf/4.2.1/../../../../m68k-elf/lib/m5206e\libstdc++.a(stdexcept.o)
 _ZTVSt16invalid_argument
                0x00000000        0x0 c:/nburn/gcc-m68k/bin/../lib/gcc/m68k-elf/4.2.1/../../../../m68k-elf/lib/m5206e\libstdc++.a(stdexcept.o)
 _ZTISt16invalid_argument
                0x00000000        0x0 c:/nburn/gcc-m68k/bin/../lib/gcc/m68k-elf/4.2.1/../../../../m68k-elf/lib/m5206e\libstdc++.a(stdexcept.o)
 _ZTSSt16invalid_argument
                0x00000000        0x0 c:/nburn/gcc-m68k/bin/../lib/gcc/m68k-elf/4.2.1/../../../../m68k-elf/lib/m5206e\libstdc++.a(stdexcept.o)
 _ZTVSt12domain_error
                0x00000000        0x0 c:/nburn/gcc-m68k/bin/../lib/gcc/m68k-elf/4.2.1/../../../../m68k-elf/lib/m5206e\libstdc++.a(stdexcept.o)
 _ZTISt12domain_error
                0x00000000        0x0 c:/nburn/gcc-m68k/bin/../lib/gcc/m68k-elf/4.2.1/../../../../m68k-elf/lib/m5206e\libstdc++.a(stdexcept.o)
 _ZTSSt12domain_error
                0x00000000        0x0 c:/nburn/gcc-m68k/bin/../lib/gcc/m68k-elf/4.2.1/../../../../m68k-elf/lib/m5206e\libstdc++.a(stdexcept.o)
 .text._ZNSt11range_errorD0Ev
                0x00000000        0x0 c:/nburn/gcc-m68k/bin/../lib/gcc/m68k-elf/4.2.1/../../../../m68k-elf/lib/m5206e\libstdc++.a(stdexcept.o)
 .text._ZNSt11range_errorD1Ev
                0x00000000        0x0 c:/nburn/gcc-m68k/bin/../lib/gcc/m68k-elf/4.2.1/../../../../m68k-elf/lib/m5206e\libstdc++.a(stdexcept.o)
 .text._ZNSt14overflow_errorD0Ev
                0x00000000        0x0 c:/nburn/gcc-m68k/bin/../lib/gcc/m68k-elf/4.2.1/../../../../m68k-elf/lib/m5206e\libstdc++.a(stdexcept.o)
 .text._ZNSt14overflow_errorD1Ev
                0x00000000        0x0 c:/nburn/gcc-m68k/bin/../lib/gcc/m68k-elf/4.2.1/../../../../m68k-elf/lib/m5206e\libstdc++.a(stdexcept.o)
 .text._ZNSt15underflow_errorD0Ev
                0x00000000        0x0 c:/nburn/gcc-m68k/bin/../lib/gcc/m68k-elf/4.2.1/../../../../m68k-elf/lib/m5206e\libstdc++.a(stdexcept.o)
 .text._ZNSt15underflow_errorD1Ev
                0x00000000        0x0 c:/nburn/gcc-m68k/bin/../lib/gcc/m68k-elf/4.2.1/../../../../m68k-elf/lib/m5206e\libstdc++.a(stdexcept.o)
 .text._ZNSt12domain_errorD0Ev
                0x00000000        0x0 c:/nburn/gcc-m68k/bin/../lib/gcc/m68k-elf/4.2.1/../../../../m68k-elf/lib/m5206e\libstdc++.a(stdexcept.o)
 .text._ZNSt12domain_errorD1Ev
                0x00000000        0x0 c:/nburn/gcc-m68k/bin/../lib/gcc/m68k-elf/4.2.1/../../../../m68k-elf/lib/m5206e\libstdc++.a(stdexcept.o)
 .text._ZNSt16invalid_argumentD0Ev
                0x00000000        0x0 c:/nburn/gcc-m68k/bin/../lib/gcc/m68k-elf/4.2.1/../../../../m68k-elf/lib/m5206e\libstdc++.a(stdexcept.o)
 .text._ZNSt16invalid_argumentD1Ev
                0x00000000        0x0 c:/nburn/gcc-m68k/bin/../lib/gcc/m68k-elf/4.2.1/../../../../m68k-elf/lib/m5206e\libstdc++.a(stdexcept.o)
 .text._ZNSt12length_errorD0Ev
                0x00000000        0x0 c:/nburn/gcc-m68k/bin/../lib/gcc/m68k-elf/4.2.1/../../../../m68k-elf/lib/m5206e\libstdc++.a(stdexcept.o)
 .text._ZNSt12length_errorD1Ev
                0x00000000        0x0 c:/nburn/gcc-m68k/bin/../lib/gcc/m68k-elf/4.2.1/../../../../m68k-elf/lib/m5206e\libstdc++.a(stdexcept.o)
 .text._ZNSt12out_of_rangeD0Ev
                0x00000000        0x0 c:/nburn/gcc-m68k/bin/../lib/gcc/m68k-elf/4.2.1/../../../../m68k-elf/lib/m5206e\libstdc++.a(stdexcept.o)
 .text._ZNSt12out_of_rangeD1Ev
                0x00000000        0x0 c:/nburn/gcc-m68k/bin/../lib/gcc/m68k-elf/4.2.1/../../../../m68k-elf/lib/m5206e\libstdc++.a(stdexcept.o)
 .rodata._ZTVSt15underflow_error
                0x00000000        0x0 c:/nburn/gcc-m68k/bin/../lib/gcc/m68k-elf/4.2.1/../../../../m68k-elf/lib/m5206e\libstdc++.a(stdexcept.o)
 .rodata._ZTISt15underflow_error
                0x00000000        0x0 c:/nburn/gcc-m68k/bin/../lib/gcc/m68k-elf/4.2.1/../../../../m68k-elf/lib/m5206e\libstdc++.a(stdexcept.o)
 .rodata._ZTSSt15underflow_error
                0x00000000        0x0 c:/nburn/gcc-m68k/bin/../lib/gcc/m68k-elf/4.2.1/../../../../m68k-elf/lib/m5206e\libstdc++.a(stdexcept.o)
 .rodata._ZTVSt14overflow_error
                0x00000000        0x0 c:/nburn/gcc-m68k/bin/../lib/gcc/m68k-elf/4.2.1/../../../../m68k-elf/lib/m5206e\libstdc++.a(stdexcept.o)
 .rodata._ZTISt14overflow_error
                0x00000000        0x0 c:/nburn/gcc-m68k/bin/../lib/gcc/m68k-elf/4.2.1/../../../../m68k-elf/lib/m5206e\libstdc++.a(stdexcept.o)
 .rodata._ZTSSt14overflow_error
                0x00000000        0x0 c:/nburn/gcc-m68k/bin/../lib/gcc/m68k-elf/4.2.1/../../../../m68k-elf/lib/m5206e\libstdc++.a(stdexcept.o)
 .rodata._ZTVSt11range_error
                0x00000000        0x0 c:/nburn/gcc-m68k/bin/../lib/gcc/m68k-elf/4.2.1/../../../../m68k-elf/lib/m5206e\libstdc++.a(stdexcept.o)
 .rodata._ZTISt11range_error
                0x00000000        0x0 c:/nburn/gcc-m68k/bin/../lib/gcc/m68k-elf/4.2.1/../../../../m68k-elf/lib/m5206e\libstdc++.a(stdexcept.o)
 .rodata._ZTSSt11range_error
                0x00000000        0x0 c:/nburn/gcc-m68k/bin/../lib/gcc/m68k-elf/4.2.1/../../../../m68k-elf/lib/m5206e\libstdc++.a(stdexcept.o)
 .rodata._ZTVSt12out_of_range
                0x00000000        0x0 c:/nburn/gcc-m68k/bin/../lib/gcc/m68k-elf/4.2.1/../../../../m68k-elf/lib/m5206e\libstdc++.a(stdexcept.o)
 .rodata._ZTISt12out_of_range
                0x00000000        0x0 c:/nburn/gcc-m68k/bin/../lib/gcc/m68k-elf/4.2.1/../../../../m68k-elf/lib/m5206e\libstdc++.a(stdexcept.o)
 .rodata._ZTSSt12out_of_range
                0x00000000        0x0 c:/nburn/gcc-m68k/bin/../lib/gcc/m68k-elf/4.2.1/../../../../m68k-elf/lib/m5206e\libstdc++.a(stdexcept.o)
 .rodata._ZTVSt12length_error
                0x00000000        0x0 c:/nburn/gcc-m68k/bin/../lib/gcc/m68k-elf/4.2.1/../../../../m68k-elf/lib/m5206e\libstdc++.a(stdexcept.o)
 .rodata._ZTISt12length_error
                0x00000000        0x0 c:/nburn/gcc-m68k/bin/../lib/gcc/m68k-elf/4.2.1/../../../../m68k-elf/lib/m5206e\libstdc++.a(stdexcept.o)
 .rodata._ZTSSt12length_error
                0x00000000        0x0 c:/nburn/gcc-m68k/bin/../lib/gcc/m68k-elf/4.2.1/../../../../m68k-elf/lib/m5206e\libstdc++.a(stdexcept.o)
 .rodata._ZTVSt16invalid_argument
                0x00000000        0x0 c:/nburn/gcc-m68k/bin/../lib/gcc/m68k-elf/4.2.1/../../../../m68k-elf/lib/m5206e\libstdc++.a(stdexcept.o)
 .rodata._ZTISt16invalid_argument
                0x00000000        0x0 c:/nburn/gcc-m68k/bin/../lib/gcc/m68k-elf/4.2.1/../../../../m68k-elf/lib/m5206e\libstdc++.a(stdexcept.o)
 .rodata._ZTSSt16invalid_argument
                0x00000000        0x0 c:/nburn/gcc-m68k/bin/../lib/gcc/m68k-elf/4.2.1/../../../../m68k-elf/lib/m5206e\libstdc++.a(stdexcept.o)
 .rodata._ZTVSt12domain_error
                0x00000000        0x0 c:/nburn/gcc-m68k/bin/../lib/gcc/m68k-elf/4.2.1/../../../../m68k-elf/lib/m5206e\libstdc++.a(stdexcept.o)
 .rodata._ZTISt12domain_error
                0x00000000        0x0 c:/nburn/gcc-m68k/bin/../lib/gcc/m68k-elf/4.2.1/../../../../m68k-elf/lib/m5206e\libstdc++.a(stdexcept.o)
 .rodata._ZTSSt12domain_error
                0x00000000        0x0 c:/nburn/gcc-m68k/bin/../lib/gcc/m68k-elf/4.2.1/../../../../m68k-elf/lib/m5206e\libstdc++.a(stdexcept.o)
 _ZNKSs7_M_dataEv
                0x00000000        0x0 c:/nburn/gcc-m68k/bin/../lib/gcc/m68k-elf/4.2.1/../../../../m68k-elf/lib/m5206e\libstdc++.a(string-inst.o)
 _ZNSs7_M_dataEPc
                0x00000000        0x0 c:/nburn/gcc-m68k/bin/../lib/gcc/m68k-elf/4.2.1/../../../../m68k-elf/lib/m5206e\libstdc++.a(string-inst.o)
 _ZNKSs6_M_repEv
                0x00000000        0x0 c:/nburn/gcc-m68k/bin/../lib/gcc/m68k-elf/4.2.1/../../../../m68k-elf/lib/m5206e\libstdc++.a(string-inst.o)
 _ZNKSs9_M_ibeginEv
                0x00000000        0x0 c:/nburn/gcc-m68k/bin/../lib/gcc/m68k-elf/4.2.1/../../../../m68k-elf/lib/m5206e\libstdc++.a(string-inst.o)
 _ZNKSs7_M_iendEv
                0x00000000        0x0 c:/nburn/gcc-m68k/bin/../lib/gcc/m68k-elf/4.2.1/../../../../m68k-elf/lib/m5206e\libstdc++.a(string-inst.o)
 _ZNKSs8_M_limitEmm
                0x00000000        0x0 c:/nburn/gcc-m68k/bin/../lib/gcc/m68k-elf/4.2.1/../../../../m68k-elf/lib/m5206e\libstdc++.a(string-inst.o)
 _ZNKSs11_M_disjunctEPKc
                0x00000000        0x0 c:/nburn/gcc-m68k/bin/../lib/gcc/m68k-elf/4.2.1/../../../../m68k-elf/lib/m5206e\libstdc++.a(string-inst.o)
 _ZNSs12_S_empty_repEv
                0x00000000        0x0 c:/nburn/gcc-m68k/bin/../lib/gcc/m68k-elf/4.2.1/../../../../m68k-elf/lib/m5206e\libstdc++.a(string-inst.o)
 _ZNSsC1Ev      0x00000000        0x0 c:/nburn/gcc-m68k/bin/../lib/gcc/m68k-elf/4.2.1/../../../../m68k-elf/lib/m5206e\libstdc++.a(string-inst.o)
 _ZNKSs5beginEv
                0x00000000        0x0 c:/nburn/gcc-m68k/bin/../lib/gcc/m68k-elf/4.2.1/../../../../m68k-elf/lib/m5206e\libstdc++.a(string-inst.o)
 _ZNKSs3endEv   0x00000000        0x0 c:/nburn/gcc-m68k/bin/../lib/gcc/m68k-elf/4.2.1/../../../../m68k-elf/lib/m5206e\libstdc++.a(string-inst.o)
 _ZNKSs4sizeEv  0x00000000        0x0 c:/nburn/gcc-m68k/bin/../lib/gcc/m68k-elf/4.2.1/../../../../m68k-elf/lib/m5206e\libstdc++.a(string-inst.o)
 _ZNKSs8max_sizeEv
                0x00000000        0x0 c:/nburn/gcc-m68k/bin/../lib/gcc/m68k-elf/4.2.1/../../../../m68k-elf/lib/m5206e\libstdc++.a(string-inst.o)
 _ZNKSs8capacityEv
                0x00000000        0x0 c:/nburn/gcc-m68k/bin/../lib/gcc/m68k-elf/4.2.1/../../../../m68k-elf/lib/m5206e\libstdc++.a(string-inst.o)
 _ZNKSs4dataEv  0x00000000        0x0 c:/nburn/gcc-m68k/bin/../lib/gcc/m68k-elf/4.2.1/../../../../m68k-elf/lib/m5206e\libstdc++.a(string-inst.o)
 _ZNKSs13get_allocatorEv
                0x00000000        0x0 c:/nburn/gcc-m68k/bin/../lib/gcc/m68k-elf/4.2.1/../../../../m68k-elf/lib/m5206e\libstdc++.a(string-inst.o)
 _ZNSs12_Alloc_hiderC1EPcRKSaIcE
                0x00000000        0x0 c:/nburn/gcc-m68k/bin/../lib/gcc/m68k-elf/4.2.1/../../../../m68k-elf/lib/m5206e\libstdc++.a(string-inst.o)
 _ZNSs4_Rep12_S_empty_repEv
                0x00000000        0x0 c:/nburn/gcc-m68k/bin/../lib/gcc/m68k-elf/4.2.1/../../../../m68k-elf/lib/m5206e\libstdc++.a(string-inst.o)
 _ZNKSs4_Rep12_M_is_leakedEv
                0x00000000        0x0 c:/nburn/gcc-m68k/bin/../lib/gcc/m68k-elf/4.2.1/../../../../m68k-elf/lib/m5206e\libstdc++.a(string-inst.o)
 _ZNKSs4_Rep12_M_is_sharedEv
                0x00000000        0x0 c:/nburn/gcc-m68k/bin/../lib/gcc/m68k-elf/4.2.1/../../../../m68k-elf/lib/m5206e\libstdc++.a(string-inst.o)
 _ZNSs4_Rep13_M_set_leakedEv
                0x00000000        0x0 c:/nburn/gcc-m68k/bin/../lib/gcc/m68k-elf/4.2.1/../../../../m68k-elf/lib/m5206e\libstdc++.a(string-inst.o)
 _ZNSs4_Rep15_M_set_sharableEv
                0x00000000        0x0 c:/nburn/gcc-m68k/bin/../lib/gcc/m68k-elf/4.2.1/../../../../m68k-elf/lib/m5206e\libstdc++.a(string-inst.o)
 _ZNSs4_Rep26_M_set_length_and_sharableEm
                0x00000000        0x0 c:/nburn/gcc-m68k/bin/../lib/gcc/m68k-elf/4.2.1/../../../../m68k-elf/lib/m5206e\libstdc++.a(string-inst.o)
 _ZNSs4_Rep10_M_refdataEv
                0x00000000        0x0 c:/nburn/gcc-m68k/bin/../lib/gcc/m68k-elf/4.2.1/../../../../m68k-elf/lib/m5206e\libstdc++.a(string-inst.o)
 _ZN9__gnu_cxxeqIPcSsEEbRKNS_17__normal_iteratorIT_T0_EES7_
                0x00000000        0x0 c:/nburn/gcc-m68k/bin/../lib/gcc/m68k-elf/4.2.1/../../../../m68k-elf/lib/m5206e\libstdc++.a(string-inst.o)
 _ZNSs12_Alloc_hiderC2EPcRKSaIcE
                0x00000000        0x0 c:/nburn/gcc-m68k/bin/../lib/gcc/m68k-elf/4.2.1/../../../../m68k-elf/lib/m5206e\libstdc++.a(string-inst.o)
 _ZNSs4_Rep10_M_refcopyEv
                0x00000000        0x0 c:/nburn/gcc-m68k/bin/../lib/gcc/m68k-elf/4.2.1/../../../../m68k-elf/lib/m5206e\libstdc++.a(string-inst.o)
 _ZNKSs15_M_check_lengthEmmPKc
                0x00000000        0x0 c:/nburn/gcc-m68k/bin/../lib/gcc/m68k-elf/4.2.1/../../../../m68k-elf/lib/m5206e\libstdc++.a(string-inst.o)
 _ZNKSs8_M_checkEmPKc
                0x00000000        0x0 c:/nburn/gcc-m68k/bin/../lib/gcc/m68k-elf/4.2.1/../../../../m68k-elf/lib/m5206e\libstdc++.a(string-inst.o)
 _ZNSs9_M_assignEPcmc
                0x00000000        0x0 c:/nburn/gcc-m68k/bin/../lib/gcc/m68k-elf/4.2.1/../../../../m68k-elf/lib/m5206e\libstdc++.a(string-inst.o)
 _ZNSs7_M_moveEPcPKcm
                0x00000000        0x0 c:/nburn/gcc-m68k/bin/../lib/gcc/m68k-elf/4.2.1/../../../../m68k-elf/lib/m5206e\libstdc++.a(string-inst.o)
 _ZNSs7_M_copyEPcPKcm
                0x00000000        0x0 c:/nburn/gcc-m68k/bin/../lib/gcc/m68k-elf/4.2.1/../../../../m68k-elf/lib/m5206e\libstdc++.a(string-inst.o)
 _ZNKSs5c_strEv
                0x00000000        0x0 c:/nburn/gcc-m68k/bin/../lib/gcc/m68k-elf/4.2.1/../../../../m68k-elf/lib/m5206e\libstdc++.a(string-inst.o)
 _ZNKSsixEm     0x00000000        0x0 c:/nburn/gcc-m68k/bin/../lib/gcc/m68k-elf/4.2.1/../../../../m68k-elf/lib/m5206e\libstdc++.a(string-inst.o)
 _ZNKSs4findEcm
                0x00000000        0x0 c:/nburn/gcc-m68k/bin/../lib/gcc/m68k-elf/4.2.1/../../../../m68k-elf/lib/m5206e\libstdc++.a(string-inst.o)
 _ZNKSs13find_first_ofEcm
                0x00000000        0x0 c:/nburn/gcc-m68k/bin/../lib/gcc/m68k-elf/4.2.1/../../../../m68k-elf/lib/m5206e\libstdc++.a(string-inst.o)
 _ZNKSs2atEm    0x00000000        0x0 c:/nburn/gcc-m68k/bin/../lib/gcc/m68k-elf/4.2.1/../../../../m68k-elf/lib/m5206e\libstdc++.a(string-inst.o)
 _ZNKSs5emptyEv
                0x00000000        0x0 c:/nburn/gcc-m68k/bin/../lib/gcc/m68k-elf/4.2.1/../../../../m68k-elf/lib/m5206e\libstdc++.a(string-inst.o)
 _ZNKSs6lengthEv
                0x00000000        0x0 c:/nburn/gcc-m68k/bin/../lib/gcc/m68k-elf/4.2.1/../../../../m68k-elf/lib/m5206e\libstdc++.a(string-inst.o)
 _ZNSsC2Ev      0x00000000        0x0 c:/nburn/gcc-m68k/bin/../lib/gcc/m68k-elf/4.2.1/../../../../m68k-elf/lib/m5206e\libstdc++.a(string-inst.o)
 _ZN9__gnu_cxxeqIPKcSsEEbRKNS_17__normal_iteratorIT_T0_EES8_
                0x00000000        0x0 c:/nburn/gcc-m68k/bin/../lib/gcc/m68k-elf/4.2.1/../../../../m68k-elf/lib/m5206e\libstdc++.a(string-inst.o)
 _ZNKSs16find_last_not_ofEcm
                0x00000000        0x0 c:/nburn/gcc-m68k/bin/../lib/gcc/m68k-elf/4.2.1/../../../../m68k-elf/lib/m5206e\libstdc++.a(string-inst.o)
 _ZNKSs17find_first_not_ofEcm
                0x00000000        0x0 c:/nburn/gcc-m68k/bin/../lib/gcc/m68k-elf/4.2.1/../../../../m68k-elf/lib/m5206e\libstdc++.a(string-inst.o)
 _ZNKSs5rfindEcm
                0x00000000        0x0 c:/nburn/gcc-m68k/bin/../lib/gcc/m68k-elf/4.2.1/../../../../m68k-elf/lib/m5206e\libstdc++.a(string-inst.o)
 _ZNKSs12find_last_ofEcm
                0x00000000        0x0 c:/nburn/gcc-m68k/bin/../lib/gcc/m68k-elf/4.2.1/../../../../m68k-elf/lib/m5206e\libstdc++.a(string-inst.o)
 _ZNSs4_Rep9_S_createEmmRKSaIcE
                0x00000000        0x0 c:/nburn/gcc-m68k/bin/../lib/gcc/m68k-elf/4.2.1/../../../../m68k-elf/lib/m5206e\libstdc++.a(string-inst.o)
 _ZNSs4_Rep10_M_destroyERKSaIcE
                0x00000000        0x0 c:/nburn/gcc-m68k/bin/../lib/gcc/m68k-elf/4.2.1/../../../../m68k-elf/lib/m5206e\libstdc++.a(string-inst.o)
 _ZNSs4_Rep10_M_disposeERKSaIcE
                0x00000000        0x0 c:/nburn/gcc-m68k/bin/../lib/gcc/m68k-elf/4.2.1/../../../../m68k-elf/lib/m5206e\libstdc++.a(string-inst.o)
 _ZNKSs16find_last_not_ofEPKcmm
                0x00000000        0x0 c:/nburn/gcc-m68k/bin/../lib/gcc/m68k-elf/4.2.1/../../../../m68k-elf/lib/m5206e\libstdc++.a(string-inst.o)
 _ZNKSs16find_last_not_ofERKSsm
                0x00000000        0x0 c:/nburn/gcc-m68k/bin/../lib/gcc/m68k-elf/4.2.1/../../../../m68k-elf/lib/m5206e\libstdc++.a(string-inst.o)
 _ZNKSs17find_first_not_ofEPKcmm
                0x00000000        0x0 c:/nburn/gcc-m68k/bin/../lib/gcc/m68k-elf/4.2.1/../../../../m68k-elf/lib/m5206e\libstdc++.a(string-inst.o)
 _ZNKSs17find_first_not_ofERKSsm
                0x00000000        0x0 c:/nburn/gcc-m68k/bin/../lib/gcc/m68k-elf/4.2.1/../../../../m68k-elf/lib/m5206e\libstdc++.a(string-inst.o)
 _ZNKSs12find_last_ofEPKcmm
                0x00000000        0x0 c:/nburn/gcc-m68k/bin/../lib/gcc/m68k-elf/4.2.1/../../../../m68k-elf/lib/m5206e\libstdc++.a(string-inst.o)
 _ZNKSs12find_last_ofERKSsm
                0x00000000        0x0 c:/nburn/gcc-m68k/bin/../lib/gcc/m68k-elf/4.2.1/../../../../m68k-elf/lib/m5206e\libstdc++.a(string-inst.o)
 _ZNKSs13find_first_ofEPKcmm
                0x00000000        0x0 c:/nburn/gcc-m68k/bin/../lib/gcc/m68k-elf/4.2.1/../../../../m68k-elf/lib/m5206e\libstdc++.a(string-inst.o)
 _ZNKSs13find_first_ofERKSsm
                0x00000000        0x0 c:/nburn/gcc-m68k/bin/../lib/gcc/m68k-elf/4.2.1/../../../../m68k-elf/lib/m5206e\libstdc++.a(string-inst.o)
 _ZNKSs7compareERKSs
                0x00000000        0x0 c:/nburn/gcc-m68k/bin/../lib/gcc/m68k-elf/4.2.1/../../../../m68k-elf/lib/m5206e\libstdc++.a(string-inst.o)
 _ZNKSs5rfindEPKcmm
                0x00000000        0x0 c:/nburn/gcc-m68k/bin/../lib/gcc/m68k-elf/4.2.1/../../../../m68k-elf/lib/m5206e\libstdc++.a(string-inst.o)
 _ZNKSs5rfindERKSsm
                0x00000000        0x0 c:/nburn/gcc-m68k/bin/../lib/gcc/m68k-elf/4.2.1/../../../../m68k-elf/lib/m5206e\libstdc++.a(string-inst.o)
 _ZNKSs4findEPKcmm
                0x00000000        0x0 c:/nburn/gcc-m68k/bin/../lib/gcc/m68k-elf/4.2.1/../../../../m68k-elf/lib/m5206e\libstdc++.a(string-inst.o)
 _ZNKSs4findERKSsm
                0x00000000        0x0 c:/nburn/gcc-m68k/bin/../lib/gcc/m68k-elf/4.2.1/../../../../m68k-elf/lib/m5206e\libstdc++.a(string-inst.o)
 _ZNKSs7compareEPKc
                0x00000000        0x0 c:/nburn/gcc-m68k/bin/../lib/gcc/m68k-elf/4.2.1/../../../../m68k-elf/lib/m5206e\libstdc++.a(string-inst.o)
 _ZNKSs16find_last_not_ofEPKcm
                0x00000000        0x0 c:/nburn/gcc-m68k/bin/../lib/gcc/m68k-elf/4.2.1/../../../../m68k-elf/lib/m5206e\libstdc++.a(string-inst.o)
 _ZNKSs17find_first_not_ofEPKcm
                0x00000000        0x0 c:/nburn/gcc-m68k/bin/../lib/gcc/m68k-elf/4.2.1/../../../../m68k-elf/lib/m5206e\libstdc++.a(string-inst.o)
 _ZNKSs12find_last_ofEPKcm
                0x00000000        0x0 c:/nburn/gcc-m68k/bin/../lib/gcc/m68k-elf/4.2.1/../../../../m68k-elf/lib/m5206e\libstdc++.a(string-inst.o)
 _ZNKSs13find_first_ofEPKcm
                0x00000000        0x0 c:/nburn/gcc-m68k/bin/../lib/gcc/m68k-elf/4.2.1/../../../../m68k-elf/lib/m5206e\libstdc++.a(string-inst.o)
 _ZNKSs5rfindEPKcm
                0x00000000        0x0 c:/nburn/gcc-m68k/bin/../lib/gcc/m68k-elf/4.2.1/../../../../m68k-elf/lib/m5206e\libstdc++.a(string-inst.o)
 _ZNKSs4findEPKcm
                0x00000000        0x0 c:/nburn/gcc-m68k/bin/../lib/gcc/m68k-elf/4.2.1/../../../../m68k-elf/lib/m5206e\libstdc++.a(string-inst.o)
 _ZNKSs4rendEv  0x00000000        0x0 c:/nburn/gcc-m68k/bin/../lib/gcc/m68k-elf/4.2.1/../../../../m68k-elf/lib/m5206e\libstdc++.a(string-inst.o)
 _ZNKSs6rbeginEv
                0x00000000        0x0 c:/nburn/gcc-m68k/bin/../lib/gcc/m68k-elf/4.2.1/../../../../m68k-elf/lib/m5206e\libstdc++.a(string-inst.o)
 _ZNSs12_S_constructEmcRKSaIcE
                0x00000000        0x0 c:/nburn/gcc-m68k/bin/../lib/gcc/m68k-elf/4.2.1/../../../../m68k-elf/lib/m5206e\libstdc++.a(string-inst.o)
 _ZNSsC1EmcRKSaIcE
                0x00000000        0x0 c:/nburn/gcc-m68k/bin/../lib/gcc/m68k-elf/4.2.1/../../../../m68k-elf/lib/m5206e\libstdc++.a(string-inst.o)
 _ZNSsC2EmcRKSaIcE
                0x00000000        0x0 c:/nburn/gcc-m68k/bin/../lib/gcc/m68k-elf/4.2.1/../../../../m68k-elf/lib/m5206e\libstdc++.a(string-inst.o)
 _ZNSsC1ERKSaIcE
                0x00000000        0x0 c:/nburn/gcc-m68k/bin/../lib/gcc/m68k-elf/4.2.1/../../../../m68k-elf/lib/m5206e\libstdc++.a(string-inst.o)
 _ZNSsC2ERKSaIcE
                0x00000000        0x0 c:/nburn/gcc-m68k/bin/../lib/gcc/m68k-elf/4.2.1/../../../../m68k-elf/lib/m5206e\libstdc++.a(string-inst.o)
 _ZNKSs7compareEmmPKcm
                0x00000000        0x0 c:/nburn/gcc-m68k/bin/../lib/gcc/m68k-elf/4.2.1/../../../../m68k-elf/lib/m5206e\libstdc++.a(string-inst.o)
 _ZNKSs7compareEmmPKc
                0x00000000        0x0 c:/nburn/gcc-m68k/bin/../lib/gcc/m68k-elf/4.2.1/../../../../m68k-elf/lib/m5206e\libstdc++.a(string-inst.o)
 _ZNKSs7compareEmmRKSsmm
                0x00000000        0x0 c:/nburn/gcc-m68k/bin/../lib/gcc/m68k-elf/4.2.1/../../../../m68k-elf/lib/m5206e\libstdc++.a(string-inst.o)
 _ZNKSs7compareEmmRKSs
                0x00000000        0x0 c:/nburn/gcc-m68k/bin/../lib/gcc/m68k-elf/4.2.1/../../../../m68k-elf/lib/m5206e\libstdc++.a(string-inst.o)
 _ZNSsD1Ev      0x00000000        0x0 c:/nburn/gcc-m68k/bin/../lib/gcc/m68k-elf/4.2.1/../../../../m68k-elf/lib/m5206e\libstdc++.a(string-inst.o)
 _ZNSsD2Ev      0x00000000        0x0 c:/nburn/gcc-m68k/bin/../lib/gcc/m68k-elf/4.2.1/../../../../m68k-elf/lib/m5206e\libstdc++.a(string-inst.o)
 _ZNSs13_S_copy_charsEPcS_S_
                0x00000000        0x0 c:/nburn/gcc-m68k/bin/../lib/gcc/m68k-elf/4.2.1/../../../../m68k-elf/lib/m5206e\libstdc++.a(string-inst.o)
 _ZNSs4_Rep8_M_cloneERKSaIcEm
                0x00000000        0x0 c:/nburn/gcc-m68k/bin/../lib/gcc/m68k-elf/4.2.1/../../../../m68k-elf/lib/m5206e\libstdc++.a(string-inst.o)
 _ZNSs4_Rep7_M_grabERKSaIcES2_
                0x00000000        0x0 c:/nburn/gcc-m68k/bin/../lib/gcc/m68k-elf/4.2.1/../../../../m68k-elf/lib/m5206e\libstdc++.a(string-inst.o)
 _ZNSs7reserveEm
                0x00000000        0x0 c:/nburn/gcc-m68k/bin/../lib/gcc/m68k-elf/4.2.1/../../../../m68k-elf/lib/m5206e\libstdc++.a(string-inst.o)
 _ZNSs9push_backEc
                0x00000000        0x0 c:/nburn/gcc-m68k/bin/../lib/gcc/m68k-elf/4.2.1/../../../../m68k-elf/lib/m5206e\libstdc++.a(string-inst.o)
 _ZNSs6appendEmc
                0x00000000        0x0 c:/nburn/gcc-m68k/bin/../lib/gcc/m68k-elf/4.2.1/../../../../m68k-elf/lib/m5206e\libstdc++.a(string-inst.o)
 _ZNSspLEc      0x00000000        0x0 c:/nburn/gcc-m68k/bin/../lib/gcc/m68k-elf/4.2.1/../../../../m68k-elf/lib/m5206e\libstdc++.a(string-inst.o)
 _ZNSs6appendEPKcm
                0x00000000        0x0 c:/nburn/gcc-m68k/bin/../lib/gcc/m68k-elf/4.2.1/../../../../m68k-elf/lib/m5206e\libstdc++.a(string-inst.o)
 _ZNSs6appendEPKc
                0x00000000        0x0 c:/nburn/gcc-m68k/bin/../lib/gcc/m68k-elf/4.2.1/../../../../m68k-elf/lib/m5206e\libstdc++.a(string-inst.o)
 _ZNSspLEPKc    0x00000000        0x0 c:/nburn/gcc-m68k/bin/../lib/gcc/m68k-elf/4.2.1/../../../../m68k-elf/lib/m5206e\libstdc++.a(string-inst.o)
 _ZNSs6appendERKSsmm
                0x00000000        0x0 c:/nburn/gcc-m68k/bin/../lib/gcc/m68k-elf/4.2.1/../../../../m68k-elf/lib/m5206e\libstdc++.a(string-inst.o)
 _ZNSs6appendERKSs
                0x00000000        0x0 c:/nburn/gcc-m68k/bin/../lib/gcc/m68k-elf/4.2.1/../../../../m68k-elf/lib/m5206e\libstdc++.a(string-inst.o)
 _ZNSspLERKSs   0x00000000        0x0 c:/nburn/gcc-m68k/bin/../lib/gcc/m68k-elf/4.2.1/../../../../m68k-elf/lib/m5206e\libstdc++.a(string-inst.o)
 _ZNSs9_M_mutateEmmm
                0x00000000        0x0 c:/nburn/gcc-m68k/bin/../lib/gcc/m68k-elf/4.2.1/../../../../m68k-elf/lib/m5206e\libstdc++.a(string-inst.o)
 _ZNSs14_M_replace_auxEmmmc
                0x00000000        0x0 c:/nburn/gcc-m68k/bin/../lib/gcc/m68k-elf/4.2.1/../../../../m68k-elf/lib/m5206e\libstdc++.a(string-inst.o)
 _ZNSs7replaceEN9__gnu_cxx17__normal_iteratorIPcSsEES2_mc
                0x00000000        0x0 c:/nburn/gcc-m68k/bin/../lib/gcc/m68k-elf/4.2.1/../../../../m68k-elf/lib/m5206e\libstdc++.a(string-inst.o)
 _ZNSs7replaceEmmmc
                0x00000000        0x0 c:/nburn/gcc-m68k/bin/../lib/gcc/m68k-elf/4.2.1/../../../../m68k-elf/lib/m5206e\libstdc++.a(string-inst.o)
 _ZNSs6insertEN9__gnu_cxx17__normal_iteratorIPcSsEEc
                0x00000000        0x0 c:/nburn/gcc-m68k/bin/../lib/gcc/m68k-elf/4.2.1/../../../../m68k-elf/lib/m5206e\libstdc++.a(string-inst.o)
 _ZNSs6insertEmmc
                0x00000000        0x0 c:/nburn/gcc-m68k/bin/../lib/gcc/m68k-elf/4.2.1/../../../../m68k-elf/lib/m5206e\libstdc++.a(string-inst.o)
 _ZNSs6assignEmc
                0x00000000        0x0 c:/nburn/gcc-m68k/bin/../lib/gcc/m68k-elf/4.2.1/../../../../m68k-elf/lib/m5206e\libstdc++.a(string-inst.o)
 _ZNSsaSEc      0x00000000        0x0 c:/nburn/gcc-m68k/bin/../lib/gcc/m68k-elf/4.2.1/../../../../m68k-elf/lib/m5206e\libstdc++.a(string-inst.o)
 _ZNSs6insertEN9__gnu_cxx17__normal_iteratorIPcSsEEmc
                0x00000000        0x0 c:/nburn/gcc-m68k/bin/../lib/gcc/m68k-elf/4.2.1/../../../../m68k-elf/lib/m5206e\libstdc++.a(string-inst.o)
 _ZNSs5eraseEN9__gnu_cxx17__normal_iteratorIPcSsEES2_
                0x00000000        0x0 c:/nburn/gcc-m68k/bin/../lib/gcc/m68k-elf/4.2.1/../../../../m68k-elf/lib/m5206e\libstdc++.a(string-inst.o)
 _ZNSs5eraseEN9__gnu_cxx17__normal_iteratorIPcSsEE
                0x00000000        0x0 c:/nburn/gcc-m68k/bin/../lib/gcc/m68k-elf/4.2.1/../../../../m68k-elf/lib/m5206e\libstdc++.a(string-inst.o)
 _ZNSs5eraseEmm
                0x00000000        0x0 c:/nburn/gcc-m68k/bin/../lib/gcc/m68k-elf/4.2.1/../../../../m68k-elf/lib/m5206e\libstdc++.a(string-inst.o)
 _ZNSs5clearEv  0x00000000        0x0 c:/nburn/gcc-m68k/bin/../lib/gcc/m68k-elf/4.2.1/../../../../m68k-elf/lib/m5206e\libstdc++.a(string-inst.o)
 _ZNSs12_M_leak_hardEv
                0x00000000        0x0 c:/nburn/gcc-m68k/bin/../lib/gcc/m68k-elf/4.2.1/../../../../m68k-elf/lib/m5206e\libstdc++.a(string-inst.o)
 _ZNSs7_M_leakEv
                0x00000000        0x0 c:/nburn/gcc-m68k/bin/../lib/gcc/m68k-elf/4.2.1/../../../../m68k-elf/lib/m5206e\libstdc++.a(string-inst.o)
 _ZNSs2atEm     0x00000000        0x0 c:/nburn/gcc-m68k/bin/../lib/gcc/m68k-elf/4.2.1/../../../../m68k-elf/lib/m5206e\libstdc++.a(string-inst.o)
 _ZNSsixEm      0x00000000        0x0 c:/nburn/gcc-m68k/bin/../lib/gcc/m68k-elf/4.2.1/../../../../m68k-elf/lib/m5206e\libstdc++.a(string-inst.o)
 _ZNSs3endEv    0x00000000        0x0 c:/nburn/gcc-m68k/bin/../lib/gcc/m68k-elf/4.2.1/../../../../m68k-elf/lib/m5206e\libstdc++.a(string-inst.o)
 _ZNSs5beginEv  0x00000000        0x0 c:/nburn/gcc-m68k/bin/../lib/gcc/m68k-elf/4.2.1/../../../../m68k-elf/lib/m5206e\libstdc++.a(string-inst.o)
 _ZNSs4rendEv   0x00000000        0x0 c:/nburn/gcc-m68k/bin/../lib/gcc/m68k-elf/4.2.1/../../../../m68k-elf/lib/m5206e\libstdc++.a(string-inst.o)
 _ZNSs6rbeginEv
                0x00000000        0x0 c:/nburn/gcc-m68k/bin/../lib/gcc/m68k-elf/4.2.1/../../../../m68k-elf/lib/m5206e\libstdc++.a(string-inst.o)
 _ZNSs6resizeEmc
                0x00000000        0x0 c:/nburn/gcc-m68k/bin/../lib/gcc/m68k-elf/4.2.1/../../../../m68k-elf/lib/m5206e\libstdc++.a(string-inst.o)
 _ZNSs6resizeEm
                0x00000000        0x0 c:/nburn/gcc-m68k/bin/../lib/gcc/m68k-elf/4.2.1/../../../../m68k-elf/lib/m5206e\libstdc++.a(string-inst.o)
 _ZNSs13_S_copy_charsEPcPKcS1_
                0x00000000        0x0 c:/nburn/gcc-m68k/bin/../lib/gcc/m68k-elf/4.2.1/../../../../m68k-elf/lib/m5206e\libstdc++.a(string-inst.o)
 _ZNKSs4copyEPcmm
                0x00000000        0x0 c:/nburn/gcc-m68k/bin/../lib/gcc/m68k-elf/4.2.1/../../../../m68k-elf/lib/m5206e\libstdc++.a(string-inst.o)
 _ZNSs15_M_replace_safeEmmPKcm
                0x00000000        0x0 c:/nburn/gcc-m68k/bin/../lib/gcc/m68k-elf/4.2.1/../../../../m68k-elf/lib/m5206e\libstdc++.a(string-inst.o)
 _ZNSs6insertEmPKcm
                0x00000000        0x0 c:/nburn/gcc-m68k/bin/../lib/gcc/m68k-elf/4.2.1/../../../../m68k-elf/lib/m5206e\libstdc++.a(string-inst.o)
 _ZNSs6insertEmPKc
                0x00000000        0x0 c:/nburn/gcc-m68k/bin/../lib/gcc/m68k-elf/4.2.1/../../../../m68k-elf/lib/m5206e\libstdc++.a(string-inst.o)
 _ZNSs6insertEmRKSsmm
                0x00000000        0x0 c:/nburn/gcc-m68k/bin/../lib/gcc/m68k-elf/4.2.1/../../../../m68k-elf/lib/m5206e\libstdc++.a(string-inst.o)
 _ZNSs6insertEmRKSs
                0x00000000        0x0 c:/nburn/gcc-m68k/bin/../lib/gcc/m68k-elf/4.2.1/../../../../m68k-elf/lib/m5206e\libstdc++.a(string-inst.o)
 _ZNSs6assignEPKcm
                0x00000000        0x0 c:/nburn/gcc-m68k/bin/../lib/gcc/m68k-elf/4.2.1/../../../../m68k-elf/lib/m5206e\libstdc++.a(string-inst.o)
 _ZNSs6assignEPKc
                0x00000000        0x0 c:/nburn/gcc-m68k/bin/../lib/gcc/m68k-elf/4.2.1/../../../../m68k-elf/lib/m5206e\libstdc++.a(string-inst.o)
 _ZNSs6assignERKSsmm
                0x00000000        0x0 c:/nburn/gcc-m68k/bin/../lib/gcc/m68k-elf/4.2.1/../../../../m68k-elf/lib/m5206e\libstdc++.a(string-inst.o)
 _ZNSsaSEPKc    0x00000000        0x0 c:/nburn/gcc-m68k/bin/../lib/gcc/m68k-elf/4.2.1/../../../../m68k-elf/lib/m5206e\libstdc++.a(string-inst.o)
 _ZNSs13_S_copy_charsEPcN9__gnu_cxx17__normal_iteratorIPKcSsEES4_
                0x00000000        0x0 c:/nburn/gcc-m68k/bin/../lib/gcc/m68k-elf/4.2.1/../../../../m68k-elf/lib/m5206e\libstdc++.a(string-inst.o)
 _ZNSs13_S_copy_charsEPcN9__gnu_cxx17__normal_iteratorIS_SsEES2_
                0x00000000        0x0 c:/nburn/gcc-m68k/bin/../lib/gcc/m68k-elf/4.2.1/../../../../m68k-elf/lib/m5206e\libstdc++.a(string-inst.o)
 _ZNSs12_S_constructIPKcEEPcT_S3_RKSaIcESt20forward_iterator_tag
                0x00000000        0x0 c:/nburn/gcc-m68k/bin/../lib/gcc/m68k-elf/4.2.1/../../../../m68k-elf/lib/m5206e\libstdc++.a(string-inst.o)
 _ZNSsC2IPKcEET_S2_RKSaIcE
                0x00000000        0x0 c:/nburn/gcc-m68k/bin/../lib/gcc/m68k-elf/4.2.1/../../../../m68k-elf/lib/m5206e\libstdc++.a(string-inst.o)
 _ZNSsC1EPKcRKSaIcE
                0x00000000        0x0 c:/nburn/gcc-m68k/bin/../lib/gcc/m68k-elf/4.2.1/../../../../m68k-elf/lib/m5206e\libstdc++.a(string-inst.o)
 _ZNSsC1EPKcmRKSaIcE
                0x00000000        0x0 c:/nburn/gcc-m68k/bin/../lib/gcc/m68k-elf/4.2.1/../../../../m68k-elf/lib/m5206e\libstdc++.a(string-inst.o)
 _ZNSsC2EPKcmRKSaIcE
                0x00000000        0x0 c:/nburn/gcc-m68k/bin/../lib/gcc/m68k-elf/4.2.1/../../../../m68k-elf/lib/m5206e\libstdc++.a(string-inst.o)
 _ZNSsC2EPKcRKSaIcE
                0x00000000        0x0 c:/nburn/gcc-m68k/bin/../lib/gcc/m68k-elf/4.2.1/../../../../m68k-elf/lib/m5206e\libstdc++.a(string-inst.o)
 _ZNSsC1IPKcEET_S2_RKSaIcE
                0x00000000        0x0 c:/nburn/gcc-m68k/bin/../lib/gcc/m68k-elf/4.2.1/../../../../m68k-elf/lib/m5206e\libstdc++.a(string-inst.o)
 _ZNSs12_S_constructIPcEES0_T_S1_RKSaIcESt20forward_iterator_tag
                0x00000000        0x0 c:/nburn/gcc-m68k/bin/../lib/gcc/m68k-elf/4.2.1/../../../../m68k-elf/lib/m5206e\libstdc++.a(string-inst.o)
 _ZNSsC2ERKSsmm
                0x00000000        0x0 c:/nburn/gcc-m68k/bin/../lib/gcc/m68k-elf/4.2.1/../../../../m68k-elf/lib/m5206e\libstdc++.a(string-inst.o)
 _ZNSsC1IPcEET_S1_RKSaIcE
                0x00000000        0x0 c:/nburn/gcc-m68k/bin/../lib/gcc/m68k-elf/4.2.1/../../../../m68k-elf/lib/m5206e\libstdc++.a(string-inst.o)
 _ZNSsC2IPcEET_S1_RKSaIcE
                0x00000000        0x0 c:/nburn/gcc-m68k/bin/../lib/gcc/m68k-elf/4.2.1/../../../../m68k-elf/lib/m5206e\libstdc++.a(string-inst.o)
 _ZNSsC1ERKSsmmRKSaIcE
                0x00000000        0x0 c:/nburn/gcc-m68k/bin/../lib/gcc/m68k-elf/4.2.1/../../../../m68k-elf/lib/m5206e\libstdc++.a(string-inst.o)
 _ZNSsC2ERKSsmmRKSaIcE
                0x00000000        0x0 c:/nburn/gcc-m68k/bin/../lib/gcc/m68k-elf/4.2.1/../../../../m68k-elf/lib/m5206e\libstdc++.a(string-inst.o)
 _ZNSsC1ERKSsmm
                0x00000000        0x0 c:/nburn/gcc-m68k/bin/../lib/gcc/m68k-elf/4.2.1/../../../../m68k-elf/lib/m5206e\libstdc++.a(string-inst.o)
 _ZNKSs6substrEmm
                0x00000000        0x0 c:/nburn/gcc-m68k/bin/../lib/gcc/m68k-elf/4.2.1/../../../../m68k-elf/lib/m5206e\libstdc++.a(string-inst.o)
 _ZNSs12_S_constructIN9__gnu_cxx17__normal_iteratorIPcSsEEEES2_T_S4_RKSaIcESt20forward_iterator_tag
                0x00000000        0x0 c:/nburn/gcc-m68k/bin/../lib/gcc/m68k-elf/4.2.1/../../../../m68k-elf/lib/m5206e\libstdc++.a(string-inst.o)
 _ZNSsC1IN9__gnu_cxx17__normal_iteratorIPcSsEEEET_S4_RKSaIcE
                0x00000000        0x0 c:/nburn/gcc-m68k/bin/../lib/gcc/m68k-elf/4.2.1/../../../../m68k-elf/lib/m5206e\libstdc++.a(string-inst.o)
 _ZNSsC2IN9__gnu_cxx17__normal_iteratorIPcSsEEEET_S4_RKSaIcE
                0x00000000        0x0 c:/nburn/gcc-m68k/bin/../lib/gcc/m68k-elf/4.2.1/../../../../m68k-elf/lib/m5206e\libstdc++.a(string-inst.o)
 _ZNSsC1ERKSs   0x00000000        0x0 c:/nburn/gcc-m68k/bin/../lib/gcc/m68k-elf/4.2.1/../../../../m68k-elf/lib/m5206e\libstdc++.a(string-inst.o)
 _ZNSsC2ERKSs   0x00000000        0x0 c:/nburn/gcc-m68k/bin/../lib/gcc/m68k-elf/4.2.1/../../../../m68k-elf/lib/m5206e\libstdc++.a(string-inst.o)
 _ZNSs6assignERKSs
                0x00000000        0x0 c:/nburn/gcc-m68k/bin/../lib/gcc/m68k-elf/4.2.1/../../../../m68k-elf/lib/m5206e\libstdc++.a(string-inst.o)
 _ZNSsaSERKSs   0x00000000        0x0 c:/nburn/gcc-m68k/bin/../lib/gcc/m68k-elf/4.2.1/../../../../m68k-elf/lib/m5206e\libstdc++.a(string-inst.o)
 _ZStplIcSt11char_traitsIcESaIcEESbIT_T0_T1_ERKS6_S8_
                0x00000000        0x0 c:/nburn/gcc-m68k/bin/../lib/gcc/m68k-elf/4.2.1/../../../../m68k-elf/lib/m5206e\libstdc++.a(string-inst.o)
 _ZStplIcSt11char_traitsIcESaIcEESbIT_T0_T1_ES3_RKS6_
                0x00000000        0x0 c:/nburn/gcc-m68k/bin/../lib/gcc/m68k-elf/4.2.1/../../../../m68k-elf/lib/m5206e\libstdc++.a(string-inst.o)
 _ZStplIcSt11char_traitsIcESaIcEESbIT_T0_T1_EPKS3_RKS6_
                0x00000000        0x0 c:/nburn/gcc-m68k/bin/../lib/gcc/m68k-elf/4.2.1/../../../../m68k-elf/lib/m5206e\libstdc++.a(string-inst.o)
 _ZNSs7replaceEmmPKcm
                0x00000000        0x0 c:/nburn/gcc-m68k/bin/../lib/gcc/m68k-elf/4.2.1/../../../../m68k-elf/lib/m5206e\libstdc++.a(string-inst.o)
 _ZNSs7replaceEN9__gnu_cxx17__normal_iteratorIPcSsEES2_NS0_IPKcSsEES5_
                0x00000000        0x0 c:/nburn/gcc-m68k/bin/../lib/gcc/m68k-elf/4.2.1/../../../../m68k-elf/lib/m5206e\libstdc++.a(string-inst.o)
 _ZNSs7replaceEN9__gnu_cxx17__normal_iteratorIPcSsEES2_S2_S2_
                0x00000000        0x0 c:/nburn/gcc-m68k/bin/../lib/gcc/m68k-elf/4.2.1/../../../../m68k-elf/lib/m5206e\libstdc++.a(string-inst.o)
 _ZNSs7replaceEN9__gnu_cxx17__normal_iteratorIPcSsEES2_PKcS4_
                0x00000000        0x0 c:/nburn/gcc-m68k/bin/../lib/gcc/m68k-elf/4.2.1/../../../../m68k-elf/lib/m5206e\libstdc++.a(string-inst.o)
 _ZNSs7replaceEN9__gnu_cxx17__normal_iteratorIPcSsEES2_S1_S1_
                0x00000000        0x0 c:/nburn/gcc-m68k/bin/../lib/gcc/m68k-elf/4.2.1/../../../../m68k-elf/lib/m5206e\libstdc++.a(string-inst.o)
 _ZNSs7replaceEN9__gnu_cxx17__normal_iteratorIPcSsEES2_PKcm
                0x00000000        0x0 c:/nburn/gcc-m68k/bin/../lib/gcc/m68k-elf/4.2.1/../../../../m68k-elf/lib/m5206e\libstdc++.a(string-inst.o)
 _ZNSs7replaceEmmPKc
                0x00000000        0x0 c:/nburn/gcc-m68k/bin/../lib/gcc/m68k-elf/4.2.1/../../../../m68k-elf/lib/m5206e\libstdc++.a(string-inst.o)
 _ZNSs7replaceEmmRKSsmm
                0x00000000        0x0 c:/nburn/gcc-m68k/bin/../lib/gcc/m68k-elf/4.2.1/../../../../m68k-elf/lib/m5206e\libstdc++.a(string-inst.o)
 _ZNSs7replaceEmmRKSs
                0x00000000        0x0 c:/nburn/gcc-m68k/bin/../lib/gcc/m68k-elf/4.2.1/../../../../m68k-elf/lib/m5206e\libstdc++.a(string-inst.o)
 _ZNSs7replaceEN9__gnu_cxx17__normal_iteratorIPcSsEES2_PKc
                0x00000000        0x0 c:/nburn/gcc-m68k/bin/../lib/gcc/m68k-elf/4.2.1/../../../../m68k-elf/lib/m5206e\libstdc++.a(string-inst.o)
 _ZNSs7replaceEN9__gnu_cxx17__normal_iteratorIPcSsEES2_RKSs
                0x00000000        0x0 c:/nburn/gcc-m68k/bin/../lib/gcc/m68k-elf/4.2.1/../../../../m68k-elf/lib/m5206e\libstdc++.a(string-inst.o)
 _ZNSs4swapERSs
                0x00000000        0x0 c:/nburn/gcc-m68k/bin/../lib/gcc/m68k-elf/4.2.1/../../../../m68k-elf/lib/m5206e\libstdc++.a(string-inst.o)
 _ZNSs4nposE    0x00000000        0x0 c:/nburn/gcc-m68k/bin/../lib/gcc/m68k-elf/4.2.1/../../../../m68k-elf/lib/m5206e\libstdc++.a(string-inst.o)
 _ZNSs4_Rep11_S_max_sizeE
                0x00000000        0x0 c:/nburn/gcc-m68k/bin/../lib/gcc/m68k-elf/4.2.1/../../../../m68k-elf/lib/m5206e\libstdc++.a(string-inst.o)
 _ZNSs4_Rep11_S_terminalE
                0x00000000        0x0 c:/nburn/gcc-m68k/bin/../lib/gcc/m68k-elf/4.2.1/../../../../m68k-elf/lib/m5206e\libstdc++.a(string-inst.o)
 _ZNSs4_Rep20_S_empty_rep_storageE
                0x00000000        0x0 c:/nburn/gcc-m68k/bin/../lib/gcc/m68k-elf/4.2.1/../../../../m68k-elf/lib/m5206e\libstdc++.a(string-inst.o)
 _ZTVSt9bad_alloc
                0x00000000        0x0 c:/nburn/gcc-m68k/bin/../lib/gcc/m68k-elf/4.2.1/../../../../m68k-elf/lib/m5206e\libstdc++.a(new_handler.o)
 _ZTSSt9bad_alloc
                0x00000000        0x0 c:/nburn/gcc-m68k/bin/../lib/gcc/m68k-elf/4.2.1/../../../../m68k-elf/lib/m5206e\libstdc++.a(new_handler.o)
 _ZTISt9bad_alloc
                0x00000000        0x0 c:/nburn/gcc-m68k/bin/../lib/gcc/m68k-elf/4.2.1/../../../../m68k-elf/lib/m5206e\libstdc++.a(new_handler.o)
 _ZTVSt13bad_exception
                0x00000000        0x0 c:/nburn/gcc-m68k/bin/../lib/gcc/m68k-elf/4.2.1/../../../../m68k-elf/lib/m5206e\libstdc++.a(eh_exception.o)
 _ZTVSt9exception
                0x00000000        0x0 c:/nburn/gcc-m68k/bin/../lib/gcc/m68k-elf/4.2.1/../../../../m68k-elf/lib/m5206e\libstdc++.a(eh_exception.o)
 _ZTSSt13bad_exception
                0x00000000        0x0 c:/nburn/gcc-m68k/bin/../lib/gcc/m68k-elf/4.2.1/../../../../m68k-elf/lib/m5206e\libstdc++.a(eh_exception.o)
 _ZTISt13bad_exception
                0x00000000        0x0 c:/nburn/gcc-m68k/bin/../lib/gcc/m68k-elf/4.2.1/../../../../m68k-elf/lib/m5206e\libstdc++.a(eh_exception.o)
 _ZTSSt9exception
                0x00000000        0x0 c:/nburn/gcc-m68k/bin/../lib/gcc/m68k-elf/4.2.1/../../../../m68k-elf/lib/m5206e\libstdc++.a(eh_exception.o)
 _ZTISt9exception
                0x00000000        0x0 c:/nburn/gcc-m68k/bin/../lib/gcc/m68k-elf/4.2.1/../../../../m68k-elf/lib/m5206e\libstdc++.a(eh_exception.o)
 _ZTVN9__gnu_cxx20recursive_init_errorE
                0x00000000        0x0 c:/nburn/gcc-m68k/bin/../lib/gcc/m68k-elf/4.2.1/../../../../m68k-elf/lib/m5206e\libstdc++.a(guard.o)
 _ZTSN9__gnu_cxx20recursive_init_errorE
                0x00000000        0x0 c:/nburn/gcc-m68k/bin/../lib/gcc/m68k-elf/4.2.1/../../../../m68k-elf/lib/m5206e\libstdc++.a(guard.o)
 _ZTIN9__gnu_cxx20recursive_init_errorE
                0x00000000        0x0 c:/nburn/gcc-m68k/bin/../lib/gcc/m68k-elf/4.2.1/../../../../m68k-elf/lib/m5206e\libstdc++.a(guard.o)
 _ZTVSt10bad_typeid
                0x00000000        0x0 c:/nburn/gcc-m68k/bin/../lib/gcc/m68k-elf/4.2.1/../../../../m68k-elf/lib/m5206e\libstdc++.a(bad_typeid.o)
 _ZTSSt10bad_typeid
                0x00000000        0x0 c:/nburn/gcc-m68k/bin/../lib/gcc/m68k-elf/4.2.1/../../../../m68k-elf/lib/m5206e\libstdc++.a(bad_typeid.o)
 _ZTISt10bad_typeid
                0x00000000        0x0 c:/nburn/gcc-m68k/bin/../lib/gcc/m68k-elf/4.2.1/../../../../m68k-elf/lib/m5206e\libstdc++.a(bad_typeid.o)
 _ZTVN10__cxxabiv117__class_type_infoE
                0x00000000        0x0 c:/nburn/gcc-m68k/bin/../lib/gcc/m68k-elf/4.2.1/../../../../m68k-elf/lib/m5206e\libstdc++.a(class_type_info.o)
 _ZTSN10__cxxabiv117__class_type_infoE
                0x00000000        0x0 c:/nburn/gcc-m68k/bin/../lib/gcc/m68k-elf/4.2.1/../../../../m68k-elf/lib/m5206e\libstdc++.a(class_type_info.o)
 _ZTIN10__cxxabiv117__class_type_infoE
                0x00000000        0x0 c:/nburn/gcc-m68k/bin/../lib/gcc/m68k-elf/4.2.1/../../../../m68k-elf/lib/m5206e\libstdc++.a(class_type_info.o)
 _ZTVSt8bad_cast
                0x00000000        0x0 c:/nburn/gcc-m68k/bin/../lib/gcc/m68k-elf/4.2.1/../../../../m68k-elf/lib/m5206e\libstdc++.a(bad_cast.o)
 _ZTSSt8bad_cast
                0x00000000        0x0 c:/nburn/gcc-m68k/bin/../lib/gcc/m68k-elf/4.2.1/../../../../m68k-elf/lib/m5206e\libstdc++.a(bad_cast.o)
 _ZTISt8bad_cast
                0x00000000        0x0 c:/nburn/gcc-m68k/bin/../lib/gcc/m68k-elf/4.2.1/../../../../m68k-elf/lib/m5206e\libstdc++.a(bad_cast.o)
 _ZTVN10__cxxabiv120__si_class_type_infoE
                0x00000000        0x0 c:/nburn/gcc-m68k/bin/../lib/gcc/m68k-elf/4.2.1/../../../../m68k-elf/lib/m5206e\libstdc++.a(si_class_type_info.o)
 _ZTSN10__cxxabiv120__si_class_type_infoE
                0x00000000        0x0 c:/nburn/gcc-m68k/bin/../lib/gcc/m68k-elf/4.2.1/../../../../m68k-elf/lib/m5206e\libstdc++.a(si_class_type_info.o)
 _ZTIN10__cxxabiv120__si_class_type_infoE
                0x00000000        0x0 c:/nburn/gcc-m68k/bin/../lib/gcc/m68k-elf/4.2.1/../../../../m68k-elf/lib/m5206e\libstdc++.a(si_class_type_info.o)
 _ZTVSt9type_info
                0x00000000        0x0 c:/nburn/gcc-m68k/bin/../lib/gcc/m68k-elf/4.2.1/../../../../m68k-elf/lib/m5206e\libstdc++.a(tinfo.o)
 _ZTSSt9type_info
                0x00000000        0x0 c:/nburn/gcc-m68k/bin/../lib/gcc/m68k-elf/4.2.1/../../../../m68k-elf/lib/m5206e\libstdc++.a(tinfo.o)
 _ZTISt9type_info
                0x00000000        0x0 c:/nburn/gcc-m68k/bin/../lib/gcc/m68k-elf/4.2.1/../../../../m68k-elf/lib/m5206e\libstdc++.a(tinfo.o)

Memory Configuration

Name             Origin             Length             Attributes
ram              0x02000000         0x00200000         xrw
SRAM             0x20000400         0x0000fc00         xrw
*default*        0x00000000         0xffffffff

Linker script and memory map

LOAD c:/nburn/gcc-m68k/bin/../lib/gcc/m68k-elf/4.2.1/../../../../m68k-elf/lib/m5206e\nb-crt0.o
LOAD c:/nburn/gcc-m68k/bin/../lib/gcc/m68k-elf/4.2.1/m5206e/crtbegin.o
LOAD utils.o
LOAD services.o
LOAD observations.o
LOAD obs.o
LOAD main.o
LOAD io.o
LOAD dhtml.o
LOAD data.o
LOAD control.o
LOAD boot.o
LOAD argus_io.o
LOAD argus_control.o
LOAD C:\nburn/MOD5270/lib/sys.ld
                0x20000000                vector_base = 0x20000000
                0x20010000                SRAM_END_ADDR = 0x20010000
                0x40000000                sim = 0x40000000
                0xffc04000                gConfigRec = 0xffc04000
                0xffc06000                UserParamBase = 0xffc06000
                0xffc00008                _RESET_ADDR = 0xffc00008
                0xffc08000                FlashAppBase = 0xffc08000
START GROUP
LOAD C:\nburn/lib/MOD5270.a
LOAD C:\nburn/lib/NetBurner.a
LOAD C:\nburn/lib/FatFile.a
LOAD C:\nburn\lib\debugLibrary.a
LOAD C:\nburn\lib\Lua_Full.a
END GROUP
LOAD c:/nburn/gcc-m68k/bin/../lib/gcc/m68k-elf/4.2.1/../../../../m68k-elf/lib/m5206e\libstdc++.a
LOAD c:/nburn/gcc-m68k/bin/../lib/gcc/m68k-elf/4.2.1/../../../../m68k-elf/lib/m5206e\libm.a
LOAD c:/nburn/gcc-m68k/bin/../lib/gcc/m68k-elf/4.2.1/m5206e\libgcc.a
LOAD c:/nburn/gcc-m68k/bin/../lib/gcc/m68k-elf/4.2.1/../../../../m68k-elf/lib/m5206e\libc.a
LOAD c:/nburn/gcc-m68k/bin/../lib/gcc/m68k-elf/4.2.1/m5206e\libgcc.a
LOAD c:/nburn/gcc-m68k/bin/../lib/gcc/m68k-elf/4.2.1/m5206e/crtend.o
START GROUP
LOAD c:/nburn/gcc-m68k/bin/../lib/gcc/m68k-elf/4.2.1/../../../../m68k-elf/lib/m5206e\libc.a
LOAD c:/nburn/gcc-m68k/bin/../lib/gcc/m68k-elf/4.2.1/m5206e\libgcc.a
LOAD c:/nburn/gcc-m68k/bin/../lib/gcc/m68k-elf/4.2.1/../../../../m68k-elf/lib/m5206e\libm.a
END GROUP
                0x00000000                __DYNAMIC = 0x0
                0x02200000                PROVIDE (__stack, 0x2200000)
                0x00000000                PROVIDE (hardware_init_hook, 0x0)
                0x00000000                PROVIDE (_hardware_init_hook, 0x0)
                0x00000000                PROVIDE (software_init_hook, 0x0)
                0x00000000                PROVIDE (_software_init_hook, 0x0)

.SRAM_SECT      0x20000400     0x8900
                0x20000400                SRAM_START = .
 *(SYS_VAR_SECT)
 SYS_VAR_SECT   0x20000400      0x238 C:\nburn/lib/NetBurner.a(ucos.o)
                0x2000052c                TimeTick
                0x2000051c                OSLockNesting
                0x20000526                OSRunning
                0x20000508                OSTCBList
                0x20000530                OSMapTbl
                0x20000528                Secs
                0x20000514                OSTCBFreeList
                0x20000524                OSISRLevel
                0x20000510                OSTCBHighRdy
                0x20000520                OSRdyGrp
                0x20000538                OSUnMapTbl
                0x20000500                OSRdyTbl
                0x20000518                OSIntNesting
                0x2000050c                OSTCBCur
                0x20000400                OSTCBPrioTbl
 SYS_VAR_SECT   0x20000638      0x1ac C:\nburn/lib/NetBurner.a(ucosmain.o)
                0x20000638                OSTcbStructSize
                0x20000650                critical_count
                0x20000654                OSTCBTbl
 SYS_VAR_SECT   0x200007e4       0x1c C:\nburn/lib/NetBurner.a(fileio.o)
                0x200007fc                pExtraFdFunc
 SYS_VAR_SECT   0x20000800       0x20 C:\nburn/lib/NetBurner.a(iosys.o)
                0x20000800                read_file_sets
                0x20000810                error_file_sets
                0x20000808                write_file_sets
                0x20000820                SYS_VAR_SECT_END = .
                0x20000820                . = ALIGN (0x10)
 *(IDLE_STK_SECT)
                0x20000820                IDLE_STK_SECT_END = .
                0x20000820                . = ALIGN (0x10)
 *(MAIN_STK_SECT)
 MAIN_STK_SECT  0x20000820     0x2000 C:\nburn/lib/NetBurner.a(main.o)
                0x20000820                MainStk
                0x20002820                MAIN_STK_SECT_END = .
                0x20002820                . = ALIGN (0x4)
 *(ETHER_VAR_SECT)
 ETHER_VAR_SECT
                0x20002820      0x128 C:\nburn/lib/MOD5270.a(ethernet.o)
                0x200028f6                TxcPosts
                0x200028fa                TxcSems
                0x20002820                EthernetMac
                0x200028ee                LastIsrStatus
                0x20002912                MIILockOut
                0x20002850                RxBD
                0x200028e0                TxBDFlag
                0x200028fe                RxIsr
                0x2000291a                PHY_addr
                0x200028f2                RxPosts
                0x20002916                phy_data
                0x20002920                PHY_ID
                0x2000291c                PHY_OUI_ID
                0x2000290a                bEthLink
                0x2000290e                bEverHadLink
                0x200028d4                RxBDFlag
                0x200028ea                last_rxbd
                0x20002906                bEthAutoNeg
                0x200028a0                RxBDpp
                0x20002924                last_phy_read
                0x20002826                nTx
                0x20002902                TxIsr
                0x200028c8                TxBDpp
                0x20002830                TxBD
                0x20002948                ETHER_VAR_SECT_END = .
                0x20002950                . = ALIGN (0x10)
 *fill*         0x20002948        0x8 00
 *(ETHER_STK_SECT)
 ETHER_STK_SECT
                0x20002950     0x2000 C:\nburn/lib/MOD5270.a(ethernet.o)
                0x20002950                EtherSendStk
                0x20004950                ETHER_STK_SECT_END = .
                0x20004950                . = ALIGN (0x4)
 *(IP_VAR_SECT)
 IP_VAR_SECT    0x20004950      0x2fa C:\nburn/lib/NetBurner.a(ip.o)
                0x20004952                bTTL_Default
                0x20004c42                next_arp_time
                0x20004954                ipRxFifo
                0x20004986                multi_home_if_record
                0x20004966                IcmpFifo
                0x20004982                nAdditional_Homes
                0x20004950                wGlobalPktId
                0x20004976                pPromisciousPacketFunc
                0x2000497e                pFragFunc
                0x2000497a                pMultiCastFunc
                0x20004c46                delay
                0x20004972                pAutoIPTick
                0x2000496e                pMultiTick
                0x2000496a                pDHCPTick
                0x200049ae                multi_if_block
 IP_VAR_SECT    0x20004c4a       0x74 C:\nburn/lib/NetBurner.a(udp.o)
                0x20004cba                UdpNetbiosNameServicePtr
                0x20004c4a                udp_fifos
                0x20004cb2                pDHCPProcessFunction
                0x20004cb6                pTaskPacketFunc
                0x20004cae                UDP_fifos_used
                0x20004cbe                IP_VAR_SECT_END = .
                0x20004cc0                . = ALIGN (0x10)
 *fill*         0x20004cbe        0x2 00
 *(IP_STK_SECT)
 IP_STK_SECT    0x20004cc0     0x2000 C:\nburn/lib/NetBurner.a(ip.o)
                0x20004cc0                IPStk
                0x20006cc0                IP_STK_SECT_END = .
                0x20006cc0                . = ALIGN (0x4)
 *(TCP_VAR_SECT)
 TCP_VAR_SECT   0x20006cc0       0x1e C:\nburn/lib/NetBurner.a(tcp.o)
                0x20006cd0                TCP_TimerSemaphore
                0x20006cc0                TCP_critical_section
                0x20006cde                TCP_VAR_SECT_END = .
                0x20006ce0                . = ALIGN (0x10)
 *fill*         0x20006cde        0x2 00
 *(TCP_STK_SECT)
 TCP_STK_SECT   0x20006ce0     0x2000 C:\nburn/lib/NetBurner.a(tcp.o)
                0x20006ce0                TCPStk
                0x20008ce0                TCP_STK_SECT_END = .
                0x20008ce0                . = ALIGN (0x10)
 *(HTTP_STK_SECT)
                0x20008ce0                HTTP_STK_SECT_END = .
                0x20008ce0                . = ALIGN (0x10)
 *(FTP_STK_SECT)
                0x20008ce0                FTP_STK_SECT_END = .
                0x20008ce0                . = ALIGN (0x10)
 *(WIFI_STK_SECT)
                0x20008ce0                WIFI_STK_SECT_END = .
                0x20008ce0                . = ALIGN (0x10)
 *(PPP_STK_SECT)
                0x20008ce0                PPP_STK_SECT_END = .
                0x20008ce0                . = ALIGN (0x10)
 *(COMMAND_STK_SECT)
                0x20008ce0                COMMAND_STK_SECT_END = .
                0x20008ce0                . = ALIGN (0x4)
 *(USER_VAR_SECT)
                0x20008ce0                USER_VAR_SECT_END = .
                0x20008ce0                . = ALIGN (0x10)
 *(USER_STK_SECT)
                0x20008ce0                USER_STK_SECT_END = .
                0x20008ce0                BUFFERS_SECT_START = .
                0x20008ce0                . = ALIGN (0x10)
 *(BUFFERS_VAR_SECT)
 BUFFERS_VAR_SECT
                0x20008ce0       0x1c C:\nburn/lib/NetBurner.a(buffers.o)
                0x20008ce0                FAST_BUFFER_POOL_SIZE
                0x20008cee                free_fast_list
                0x20008cf8                free_list_is_initialized
                0x20008ce4                free_list
                0x20008d00                . = ALIGN (0x10)
 *fill*         0x20008cfc        0x4 00
                0x20008d00                BUFFERS_VAR_SECT_END = .
                0x20008d00                . = ALIGN (0x10)
                0x20008d00                SRAM_END = .

.text           0x02000000    0x6cb10
 *(.text)
 .text          0x02000000       0xaa c:/nburn/gcc-m68k/bin/../lib/gcc/m68k-elf/4.2.1/../../../../m68k-elf/lib/m5206e\nb-crt0.o
                0x02000000                start
 *fill*         0x020000aa        0x2 00
 .text          0x020000ac       0x9c c:/nburn/gcc-m68k/bin/../lib/gcc/m68k-elf/4.2.1/m5206e/crtbegin.o
 .text          0x02000148      0x9ca utils.o
                0x02000800                zpec_change_prio
                0x02000760                zpec_version
                0x02000678                zpec_write_if_full
                0x0200095c                zpec_parse_spec
                0x02000a40                zpec_writeFlash
                0x02000854                zpec_interrupt
                0x02000148                zpec_usleep
                0x020002c4                zpec_iptostr
                0x02000aa4                zpec_readFlash
                0x020001f0                zpec_severity
                0x020008bc                zpec_print_fixed
                0x0200038c                zpec_write_retry
                0x02000514                zpec_write_strcpy
                0x02000308                zpec_log
                0x02000290                zpec_log10_fix16
                0x02000240                zpec_log2_fix16
                0x02000af0                zpec_getSerialNo
 *fill*         0x02000b12        0x2 00
 .text          0x02000b14     0x1ac2 services.o
                0x02001aa4                MessageService::handleClient(Client*)
                0x02000bf8                MonitorService::handleRequest(TcpClient*, char*)
                0x02002324                ControlService::handleClient(Client*)
                0x02001708                TcpService::offerService()
                0x02000ff8                Service::readLine(char*, unsigned int, int, bool)
                0x02001cd0                UdpService::offerService()
                0x02000b14                Service::serviceTask(void*)
                0x02001624                Service::createServer(Client*)
                0x02001134                SimpleTcpService::handleClient(Client*)
                0x0200131c                Service::serverTask(void*)
                0x02002208                MessageService::post(char const*)
                0x02000e34                UdpService::send(void const*, unsigned short, unsigned long, unsigned short)
                0x020011e4                Service::closeClient(Client*)
                0x020013d8                Service::openClient(Client*)
                0x02000ebc                Service::start()
                0x02000d0c                DataService::handleRequest(TcpClient*, char*)
                0x020022d8                zpec_post_msg
 *fill*         0x020025d6        0x2 00
 .text          0x020025d8      0x6aa observations.o
                0x02002c18                StatsObservation::computeStats()
                0x020025d8                StatsObservation::mul_64bit(unsigned int*, unsigned int, unsigned int)
                0x0200289c                StatsObservation::computeMean(int, unsigned int)
                0x02002aac                BasicObservation::processFrame(long const*, long const*)
                0x02002984                PutDispDecimal(unsigned short, unsigned char)
                0x02002b98                StatsObservation::processFrame(long const*, long const*)
                0x02002910                ScopeObservation::processFrame(long const*, long const*)
                0x02002728                StatsObservation::computeVar(int, int, int, unsigned int)
                0x02002680                StatsObservation::div_64bit(unsigned int*, unsigned int const*, unsigned int)
 *fill*         0x02002c82        0x2 00
 .text          0x02002c84     0x3ac2 obs.o
                0x02003138                Correlator::readADCs(Observation*, unsigned int, Correlator::argument_type&, char*, unsigned int)
                0x02003cac                Correlator::findCounts(char*, unsigned int*, BasicObservation*, int, unsigned int, unsigned int, int)
                0x02004654                Correlator::execScopeObs(char*, Correlator::argument_type)
                0x020061a8                Correlator::execDiodeObs(char*, Correlator::argument_type)
                0x02005cac                Correlator::execTotalPower(char*, Correlator::argument_type)
                0x02003e00                Correlator::execLevel(char*, Correlator::argument_type)
                0x02002c84                Correlator::setIntegStatus(char*, unsigned int, unsigned int, bool)
                0x02004aec                Correlator::execStatsObs(char*, Correlator::argument_type)
                0x020056e4                Correlator::execZero(char*, Correlator::argument_type)
                0x02002f98                Correlator::collateData(LagData const&, unsigned int)
 *fill*         0x02006746        0x2 00
 .text          0x02006748     0x5272 main.o
                0x02007014                initCommandShell()
                0x0200b930                UserMain
                0x02006748                startNetwork()
 *fill*         0x0200b9ba        0x2 00
 .text          0x0200b9bc     0x111e io.o
                0x0200ba3c                zpec_disable_irq
                0x0200bb7c                cpld_get_bit
                0x0200c0cc                cpld_read_mon_adc
                0x0200bbe4                zpec_mode_name
                0x0200ba10                zpec_enable_irq
                0x0200bb0c                cpld_set_bit
                0x0200ba68                zpec_setup_irq
                0x0200b9bc                fake_ADC_isr
                0x0200bc58                cpld_set_atten
                0x0200bba8                Ipow
                0x0200c5d4                zpec_setup_watchdog
                0x0200bae8                zpec_setup_mmap
                0x0200b9c0                ADC_isr
                0x0200bdb8                cpld_init_corl_adc
                0x0200c648                real_ADC_isr
 *fill*         0x0200cada        0x2 00
 .text          0x0200cadc       0x86 dhtml.o
                0x0200cadc                dhtml_getSerialNo
 *fill*         0x0200cb62        0x2 00
 .text          0x0200cb64      0x316 data.o
                0x0200ccb4                MonitorData::write(int, char const*) const
                0x0200cb64                ControlData::setAttenuation(unsigned short)
                0x0200cb7c                LagData::write(int, unsigned int, unsigned int) const
 *fill*         0x0200ce7a        0x2 00
 .text          0x0200ce7c     0x3428 control.o
                0x0200d1d8                Correlator::execTime(char*, Correlator::argument_type)
                0x0200f024                Correlator::createHelpSummary(CommandInterpreter<Correlator, Correlator::command_type, char*, Correlator::argument_type, std::string>*)
                0x0200e1d0                Correlator::isMaster() const
                0x0200e404                Correlator::execHalt(char*, Correlator::argument_type)
                0x0200dd04                Correlator::timestamp(unsigned int, unsigned int)
                0x0200ec34                CommandInterpreter<Correlator, Correlator::command_type, char*, Correlator::argument_type, std::string>::parse(std::string&, Correlator::argument_type&, Correlator::command_type&) const
                0x0200d470                Correlator::getMode() const
                0x0200f654                Correlator::setMonitorPoint(int, bool)
                0x0200d154                Correlator::execVersion(char*, Correlator::argument_type)
                0x0200e03c                Correlator::setMode(mode_type_enum)
                0x0200e3bc                Correlator::setAccumulating(bool)
                0x0200fcbc                Correlator::execQuery(char*, Correlator::argument_type)
                0x0200e2d0                Correlator::execBoss(char*, Correlator::argument_type)
                0x0200d01c                Correlator::execQuit(char*, Correlator::argument_type)
                0x0200e514                Correlator::execVerbose(char*, Correlator::argument_type)
                0x0200d060                Correlator::execPeek(char*, Correlator::argument_type)
                0x0200d4ac                Correlator::execReboot(char*, Correlator::argument_type)
                0x0200e4d0                Correlator::setVerbosity(int)
                0x0200ed50                Correlator::execHelp(char*, Correlator::argument_type)
                0x0200ddc0                CommandInterpreter<Correlator, Correlator::command_type, char*, Correlator::argument_type, std::string>::cmdNotFound(char*, std::string&, Correlator::argument_type&, Correlator::command_type&) const
                0x0200e158                Correlator::setMaster(bool)
                0x0200d84c                Correlator::execFlash(char*, Correlator::argument_type)
                0x0200e000                Correlator::getVerbosity() const
                0x0200de5c                Correlator::execInitADCs(char*, Correlator::argument_type)
                0x0200e210                Correlator::execSync(char*, Correlator::argument_type)
                0x0200e948                Correlator::execSend(char*, Correlator::argument_type)
                0x0200e490                Correlator::isAccumulating() const
                0x0200d4fc                Correlator::execPower(char*, Correlator::argument_type)
                0x0200d300                Correlator::execPoke(char*, Correlator::argument_type)
                0x0200cf70                Correlator::execjUpTime(char*, Correlator::argument_type)
                0x0200e5d4                Correlator::execStatus(char*, Correlator::argument_type)
                0x0200ce7c                Correlator::longHelp(char*, char const*, void (Correlator::*)(char*, Correlator::argument_type)) const
                0x0200e080                Correlator::execMode(char*, Correlator::argument_type)
 .text          0x020102a4      0x43e boot.o
                0x020102bc                Correlator::initHardware()
                0x020105f8                Correlator::boot(CommandInterpreter<Correlator, Correlator::command_type, char*, Correlator::argument_type, std::string>*, global_io_struct*)
                0x020102a4                Correlator::initState()
 *fill*         0x020106e2        0x2 00
 .text          0x020106e4     0x6782 argus_io.o
                0x02011238                closeI2Cssbus(unsigned char, unsigned char)
                0x02012604                sb_readPLLmon
                0x020108cc                v2t_670(float)
                0x0201103c                argus_test
                0x02013f78                dcm2_blockMod
                0x02012c84                dcm2_readMBtemp
                0x02011158                init_vane
                0x02012404                dcm2_readMBadc
                0x020159f8                comap_presets
                0x02010e34                argus_powCheck
                0x02016744                argus_clearBus
                0x020152e4                argus_setLNAbias
                0x020142e8                dcm2_setPow
                0x020139b8                init_saddlebags
                0x02010f4c                argus_thermCheck
                0x02016598                init_bias()
                0x020125b0                readBEX(unsigned char)
                0x020151a0                argus_readAllSystemADCs
                0x020135c8                argus_readBCpsV
                0x02011530                vane_angle()
                0x02015e94                argus_lnaPower
                0x02011d50                AD7860_SPI_bitbang(unsigned char, unsigned char, unsigned char, float, unsigned char)
                0x020126a0                sb_ledOnOff
                0x02012da8                dcm2_ampPow
                0x020112b8                openI2Cssbus(unsigned char, unsigned char, unsigned char, unsigned char)
                0x020113c4                openI2Csbus(unsigned char, unsigned char)
                0x02011028                argus_systemState
                0x02016ccc                argus_init
                0x02013bf8                sb_setAllAmps
                0x02011b7c                sb_readADC
                0x0201165c                vane_obscal
                0x020127c8                AD7814_SPI_bitbang(unsigned char, unsigned char, unsigned char, unsigned char)
                0x02012e70                argus_readThermADCs
                0x02013d90                sb_ampPow
                0x02012020                dcm2_readAllModTotPwr
                0x02010c70                argus_biasCheck
                0x02014688                dcm2_setAllPow
                0x0201402c                HMC624_SPI_bitbang(unsigned char, unsigned char, unsigned char, float, unsigned char, unsigned char*)
                0x020149fc                dcm2_setAtten
                0x020106e4                v2dac(float, float, float, char)
                0x02012ce0                dcm2_ledOnOff
                0x02015d74                argus_setAllBias
                0x020168f0                init_dcm2
                0x020119c0                vane_readADC
                0x02011110                configBEX(unsigned char, unsigned char)
                0x020110c8                writeBEX(unsigned char, unsigned char)
                0x020131b4                argus_lnaPowerPIO
                0x02011380                closeI2Csbus(unsigned char)
                0x02014774                dcm2_setAllAttens
                0x020132dc                argus_readPwrADCs
                0x0201144c                vane_relayCtrl(char*)
                0x02012adc                dcm2_readAllModTemps
                0x02010838                adc2v(short, float, float, char)
                0x02014bec                argus_readLNAbiasADCs
 *fill*         0x02016e66        0x2 00
 .text          0x02016e68     0xaca6 argus_control.o
                0x02018204                Correlator::execVane(char*, Correlator::argument_type)
                0x02016e68                Correlator::execArgusLock(char*, Correlator::argument_type)
                0x02020ab0                Correlator::execJArgusSetAll(char*, Correlator::argument_type)
                0x02018db8                Correlator::execJSaddlebag(char*, Correlator::argument_type)
                0x0201a8c4                Correlator::execJCOMAPcryo(char*, Correlator::argument_type)
                0x0201a1f4                Correlator::execJArgusGate(char*, Correlator::argument_type)
                0x0201a55c                Correlator::execJArgusDrain(char*, Correlator::argument_type)
                0x02020d74                Correlator::execJCOMAPpow(char*, Correlator::argument_type)
                0x020193bc                Correlator::execJDCM2(char*, Correlator::argument_type)
                0x02019c70                Correlator::execDCM2(char*, Correlator::argument_type)
                0x0202070c                Correlator::execArgusSetAll(char*, Correlator::argument_type)
                0x02018624                Correlator::execSaddlebag(char*, Correlator::argument_type)
                0x020205c8                Correlator::execJCOMAPpresets(char*, Correlator::argument_type)
                0x02021088                Correlator::execJCOMAPatten(char*, Correlator::argument_type)
                0x0201a6e0                Correlator::execArgusDrain(char*, Correlator::argument_type)
                0x02017ab0                Correlator::execArgusLimits(char*, Correlator::argument_type)
                0x020171d0                Correlator::execJArgusFreeze(char*, Correlator::argument_type)
                0x02021934                Correlator::execArgusInit(char*, Correlator::argument_type)
                0x0202173c                Correlator::execArgusRxHealth(char*, Correlator::argument_type)
                0x0201a378                Correlator::execArgusGate(char*, Correlator::argument_type)
                0x020211f8                Correlator::execCOMAPatten(char*, Correlator::argument_type)
                0x02017258                Correlator::execJCOMAPsets(char*, Correlator::argument_type)
                0x0202065c                Correlator::execCOMAPpresets(char*, Correlator::argument_type)
                0x0201eabc                Correlator::execJCOMAPlna(char*, Correlator::argument_type)
                0x0201f224                Correlator::execArgusPwrCtrl(char*, Correlator::argument_type)
                0x020213a0                Correlator::execArgusEngr(char*, Correlator::argument_type)
                0x020219c0                Correlator::execArgusTest(char*, Correlator::argument_type)
                0x02020ee0                Correlator::execCOMAPpow(char*, Correlator::argument_type)
                0x02017b44                Correlator::execArgusThaw(char*, Correlator::argument_type)
                0x0201a9fc                Correlator::execArgusCryo(char*, Correlator::argument_type)
                0x02017c40                Correlator::execJVane(char*, Correlator::argument_type)
                0x0201ac2c                Correlator::execArgusMonPts(char*, Correlator::argument_type)
                0x020176a4                Correlator::execJCOMAPlnaTestRet(char*, Correlator::argument_type)
                0x02017148                Correlator::execJArgusThaw(char*, Correlator::argument_type)
                0x02017a24                Correlator::execJArgusLimits(char*, Correlator::argument_type)
                0x02017bc0                Correlator::execArgusFreeze(char*, Correlator::argument_type)
 *fill*         0x02021b0e        0x2 00
 .text          0x02021b10      0x5de C:\nburn/lib/MOD5270.a(bsp.o)
                0x02021e54                _sbrk_r
                0x02021fbc                HardwareSetup
                0x02021de8                DisableCache
                0x02021f54                spaceleft
                0x02021eac                LocalInByte
                0x02021fa0                ForceReboot
                0x02021d2c                FlashProgram
                0x02021f8c                BspGetTickFraction
                0x02021b10                xTick
                0x02021cac                FlashErase
                0x02021ee0                LocalOutByte
                0x02021ea0                atexit
                0x02021c04                GetPreciseTime
                0x02021dfc                EnableCache
                0x02021b2c                SetIntc
                0x02021f30                LocalCharAvail
                0x02021b14                Tick5270
 *fill*         0x020220ee        0x2 00
 .text          0x020220f0      0x3d8 C:\nburn/lib/MOD5270.a(ioboard.o)
                0x02022288                getleds
                0x02022470                getCPLDver
                0x020223c4                getDecimal
                0x02022228                putleds
                0x020222c0                putdisp
                0x02022384                putDecimal
                0x0202249c                getCPLDrev
                0x020220f0                InitChipBoardSelect
                0x02022338                getdisp
                0x020221d8                getdipsw
                0x020223f8                putSegments
                0x02022148                OnModDev70
 .text          0x020224c8     0x1d82 C:\nburn/lib/MOD5270.a(pins.o)
                0x020224c8                PinIO::set(unsigned char)
                0x02023b80                PinIO::function(int)
                0x02023080                PinIO::drive()
                0x020241e8                CReadPin
                0x020234c8                PinIO::read()
                0x0202420c                CGPInPin
 *fill*         0x0202424a        0x2 00
 .text          0x0202424c      0xde2 C:\nburn/lib/MOD5270.a(i2cmulti.o)
                0x02024854                Multi_I2CReadBuf
                0x02024310                I2CRXAvail
                0x02024330                I2CTXAvail
                0x0202424c                fake_i2c_multi_int_routine()
                0x020244ec                I2CGetByte
                0x02024488                I2CMultiResetPeripheral()
                0x02024b2c                I2C_Multi_Isr()
                0x020242a0                Multi_I2CStop
                0x020245bc                Multi_I2CSend
                0x02024eec                real_i2c_multi_int_routine
                0x02024a30                Multi_I2CSendBuf
                0x02024370                I2CFillSlaveTXBuf
                0x02024250                i2c_multi_int_routine
                0x0202464c                Multi_I2CRestart
                0x02024ef8                Multi_I2CInit
                0x02024540                Multi_I2CRead
                0x02024714                Multi_I2CStart
 *fill*         0x0202502e        0x2 00
 .text          0x02025030      0x44a C:\nburn/lib/NetBurner.a(ucosmcfa.o)
                0x02025110                OSDebugTraceHalt
                0x02025030                OSStartHighRdy
                0x02025120                TrapOutByte
                0x02025150                memcpy
                0x02025150                fmemcpy
                0x02025050                OSCtxSw
                0x02025140                TrapCharAvail
                0x02025080                OSIntCtxSw
                0x02025130                TrapInByte
                0x020250b0                OSTickISR
                0x02025220                memcpysum
                0x020250f0                OSSetupVBR
                0x02025450                GetSR_IntLevel
                0x020253b0                memset
                0x020253b0                fmemset
                0x02025460                SetSR_IntLevel
 *fill*         0x0202547a        0x2 00
 .text          0x0202547c        0x8 C:\nburn/lib/NetBurner.a(software_init.o)
                0x0202547c                software_init_hook
 .text          0x02025484      0x320 C:\nburn/lib/NetBurner.a(ucosmcfc.o)
                0x0202576c                OSTaskCreate
                0x02025798                TopOfStackKillfunction
                0x02025540                OSTaskCreatewName
                0x02025484                OSTCBInit
                0x0202579c                KillFunctionLink
 .text          0x020257a4     0x1de4 C:\nburn/lib/NetBurner.a(ucos.o)
                0x02027128                OSCritEnterNoWait
                0x02025854                UCOSWAITS_HERE
                0x02026dd4                OSFifoPostFirst
                0x0202719c                OSCritLeave
                0x02026f34                getpid
                0x02025a60                OSLock
                0x020268a4                OSQPostFirst
                0x020272b4                OSTaskID
                0x02026690                OSQPendNoWait
                0x020272cc                OSSetName
                0x020272f4                OSIntExit
                0x02025ee4                OSSemPendNoWait
                0x02025bcc                OSTaskDelete
                0x02025a88                OSUnlock
                0x02026f4c                OSCritInit
                0x0202670c                OSQPost
                0x02026f88                OSCritEnter
                0x02026a90                OSFifoPend
                0x02025d44                OSSemPend
                0x020260b0                OSMboxInit
                0x020262cc                OSMboxPost
                0x02026a44                OSFifoInit
                0x020264a8                OSQPend
                0x020257d0                OSSched
                0x0202588c                OSTimeDly
                0x02025f24                OSSemPost
                0x02025ac8                OSChangePrio
                0x02025a30                OSTCBGetFree
                0x02025864                OSIntEnterWAS
                0x0202628c                OSMboxPendNoWait
                0x02026c74                OSFifoPost
                0x02025ce4                OSSemInit
                0x02027390                OSStart
                0x02025944                OSTimeTick
                0x02026434                OSQInit
                0x020272e0                OSTaskName
                0x02026c24                OSFifoPendNoWait
                0x020260f8                OSMboxPend
                0x0202740c                OSInit
                0x02025924                OSChangeTaskDly
 .text          0x02027588      0x1b8 C:\nburn/lib/NetBurner.a(ucosmain.o)
                0x02027664                __malloc_unlock
                0x02027588                UCosBegin
                0x02027684                balloc_lock
                0x020276c4                UCosSetup
                0x02027648                balloc_unlock
                0x020276a4                __malloc_lock
 .text          0x02027740      0x5f8 C:\nburn/lib/NetBurner.a(fileio.o)
                0x020278d0                ioctl
                0x02027740                isatty
                0x02027828                CurrentStdioFD
                0x020278a0                lseek
                0x02027778                ReplaceStdio
                0x0202793c                write
                0x0202775c                fstat
                0x02027a6c                rawwrite
                0x02027c78                stdioinbyte
                0x02027af0                read
                0x02027858                outbyte
                0x020278b8                open
                0x02027870                charavail
                0x0202784c                fcntl
                0x02027cf0                close
 .text          0x02027d38      0x6d8 C:\nburn/lib/NetBurner.a(system.o)
                0x02027db0                GetUserParameters
                0x02028110                UpdateConfigRecord_Num
                0x02027d84                RawGetConfig
                0x02027d38                isvalidcr
                0x020282cc                SetupDialog
                0x02027e28                ReadLine
                0x020282b8                UpdateConfigRecord
                0x02027fe8                IpQuestion
                0x0202809c                SaveUserParameters
                0x02027dc0                ShowChange
 .text          0x02028410       0x78 C:\nburn/lib/NetBurner.a(main.o)
                0x02028448                main
                0x02028410                __do_global_ctors
 .text          0x02028488      0xbe0 C:\nburn/lib/NetBurner.a(utils.o)
                0x02028e74                fShowMac
                0x02028678                FancyDump(unsigned char*, int)
                0x02028f04                ShowCounters
                0x020285c0                convertHexAsciiToBinary
                0x02028838                ShowData
                0x02028488                kill
                0x02028f6c                fShowCounters
                0x02028e34                fShowIP
                0x02028498                _fini
                0x020287a4                ShowIP
                0x020284a4                AsciiToIp
                0x02028fe4                sShowCounters
                0x02028ed0                DiagMenuPicker(int, unsigned char)
                0x020287e0                ShowMac
                0x02028528                convertBinaryToHexAscii
                0x02028660                __builtin_delete
                0x02028490                _exit
 .text          0x02029068     0x1aaa C:\nburn/lib/NetBurner.a(ip.o)
                0x020294b8                FixUpICMP(IPPKT*, unsigned char, unsigned char, unsigned char*, unsigned short)
                0x02029228                IsMultiCast(unsigned long)
                0x02029e58                FixHeaderAndSend(pool_buffer*, IPPKT*)
                0x020297cc                DoIPPacket(pool_buffer*, EFRAME*, unsigned short)
                0x02029124                GetSum20
                0x0202a154                PingViaInterface
                0x0202976c                SaveError(pool_buffer*)
                0x02029adc                process_icmp(pool_buffer*, IPPKT*, unsigned short)
                0x02029364                IpProcessEthernetPacket
                0x02029990                FixHeaderAndSendViaInterface(pool_buffer*, IPPKT*, int)
                0x0202a3d0                ShowIPBuffer(pool_buffer*)
                0x02029fb8                SendICMPError(pool_buffer*, unsigned char, unsigned char)
                0x020295d0                InitializeStack(unsigned long, unsigned long, unsigned long, unsigned long)
                0x02029278                GetData(IPPKT*)
                0x020296f4                InitializeCStack
                0x0202a264                Ping
                0x02029068                GetSum
                0x02029700                GetMultiHomeInterface(unsigned long, int)
                0x020297b0                IsMyIp
                0x02029574                IsBroadCast(unsigned long, int)
                0x02029520                KillStack
                0x020292a4                PrepareIPOutput(pool_buffer*, unsigned long, unsigned short)
                0x02029248                GetMultiAddress(unsigned long)
                0x0202a08c                SendPing
                0x0202915c                GetSumHdr
                0x0202952c                IsLocal(unsigned long, int)
                0x0202a298                GetLocalIPInterface(unsigned long)
                0x0202a2f0                AddInterface(unsigned long, unsigned long, unsigned long, int)
                0x02029bf8                IPTask(void*)
 *fill*         0x0202ab12        0x2 00
 .text          0x0202ab14      0xef8 C:\nburn/lib/NetBurner.a(buffers.o)
                0x0202abf8                FreeBufferList
                0x0202b004                fifo_buffer_storage::Full()
                0x0202b0f4                ShowBuffer
                0x0202b3d8                fifo_buffer_storage::Reset(unsigned char)
                0x0202ac28                InitBuffers
                0x0202ad54                buffer_list::InsertBefore(pool_buffer*, pool_buffer*)
                0x0202af2c                GetBuffer
                0x0202b0d4                fifo_buffer_storage::fifo_buffer_storage(unsigned char, unsigned char)
                0x0202afec                fifo_buffer_storage::Empty()
                0x0202b850                fifo_buffer_storage::ReadDatawSum(unsigned char*, int, unsigned long&)
                0x0202afd8                fifo_buffer_storage::SpaceUsed()
                0x0202ab14                ShowBuffers()
                0x0202ab40                buffer_list::InsertHead(pool_buffer*)
                0x0202b220                GetFreeCount
                0x0202ab24                IncUsageCount
                0x0202b0b4                fifo_buffer_storage::fifo_buffer_storage(unsigned char, unsigned char)
                0x0202acf0                buffer_list::InsertTail(pool_buffer*)
                0x0202b498                fifo_buffer_storage::~fifo_buffer_storage()
                0x0202b588                fifo_buffer_storage::SetMaxBuffers(unsigned char)
                0x0202b298                fifo_buffer_storage::ReadData(unsigned char*, int)
                0x0202b04c                fifo_buffer_storage::Init(unsigned char, unsigned char)
                0x0202ab1c                DumpBuffers()
                0x0202aec4                buffer_list::RemoveHead()
                0x0202ae3c                buffer_list::Remove(pool_buffer*)
                0x0202af78                buffer_list::RemoveTail()
                0x0202b4ac                fifo_buffer_storage::LongSpaceAvail()
                0x0202b618                fifo_buffer_storage::WriteData(unsigned char*, int)
                0x0202abb0                FreeBuffer
                0x0202adc8                buffer_list::InsertAfter(pool_buffer*, pool_buffer*)
                0x0202b564                fifo_buffer_storage::SpaceAvail()
                0x0202b484                fifo_buffer_storage::~fifo_buffer_storage()
 .text          0x0202ba0c     0x1922 C:\nburn/lib/NetBurner.a(arp.o)
                0x0202c740                FindAddArp(unsigned long)
                0x0202bb68                sendGratuitousArp(int)
                0x0202ba34                MacEqual(MACADR, MACADR)
                0x0202bd70                InitializeArp()
                0x0202be18                FindArp(unsigned long)
                0x0202c074                SendArp(ArpRecord*, int)
                0x0202bd24                GetInterface(unsigned long)
                0x0202d024                AddCheckArp(MACADR*, unsigned long, int)
                0x0202ba94                SetMac(ArpRecord*, MACADR, int)
                0x0202c57c                DeleteArpFromIp(unsigned long)
                0x0202bf1c                GetArpMacFromIp(unsigned long, MACADR&)
                0x0202cb4c                RouteOutVia(EFRAME*, unsigned long, pool_buffer*, int)
                0x0202bfd0                GetProperInterface(unsigned long)
                0x0202c690                FreeOneArp()
                0x0202d0b0                processArp(pool_buffer*, EFRAME*)
                0x0202bb2c                NeedsArp(int)
                0x0202c1a4                GetNextArp(ArpRecord*)
                0x0202bc38                RawSendArp(ArpRecord*, unsigned long, int)
                0x0202c59c                AgeArp()
                0x0202cd6c                RouteOut(EFRAME*, unsigned long, pool_buffer*)
                0x0202c26c                ShowArp()
                0x0202c3ac                DeleteArp(ArpRecord*)
                0x0202c214                GetFirstArp()
                0x0202c0e0                GetSrcIp
                0x0202c9dc                IsMyAddressUsedArpDetect(unsigned short, int)
                0x0202ba2c                Cleanup()
                0x0202ba0c                IsNull(ArpRecord*)
                0x0202c300                fShowArp(__sFILE*)
                0x0202bf74                AddPending(MACADR*, unsigned long, int)
 *fill*         0x0202d32e        0x2 00
 .text          0x0202d330     0x1404 C:\nburn/lib/NetBurner.a(udp.o)
                0x0202dbf8                UDPPacket::Send(unsigned long, unsigned char)
                0x0202d478                UDPPacket::SetDestinationPort(unsigned short)
                0x0202d53c                UDPPacket::GetPacketId()
                0x0202d588                UDPPacket::GetSourceAddress()
                0x0202e344                UDPPacket::UDPPacket()
                0x0202d934                UDPPacket::AddDataByte(unsigned char)
                0x0202dd10                UDPPacket::SendAndKeep(unsigned long, unsigned char)
                0x0202d888                UDPPacket::AddData(unsigned char*, unsigned short)
                0x0202d5ac                RegisterUDPFifo(unsigned short, os_fifo*)
                0x0202d97c                UDPPacket::AddData(char const*)
                0x0202d3a4                UDPPacket::UDPPacket(pool_buffer*)
                0x0202da3c                UDPPacket::SendViaInterface(unsigned long, int, unsigned char)
                0x0202d524                UDPPacket::GetIpPacket()
                0x0202db64                UDPPacket::SendVia(unsigned long, unsigned long, unsigned char)
                0x0202dd80                UDPPacket::~UDPPacket()
                0x0202d330                GetUdpFifoRec(unsigned short)
                0x0202d4b4                UDPPacket::GetDataBuffer()
                0x0202d674                RegisterUDPFifoWithNotify(unsigned short, os_fifo*, void (*)(os_fifo*, unsigned short))
                0x0202d3f0                UDPPacket::UDPPacket(pool_buffer*)
                0x0202d4e8                UDPPacket::GetDataSize() const
                0x0202ddec                ProcessIDPacket(UDPPacket&, int)
                0x0202d958                UDPPacket::AddDataWord(unsigned short)
                0x0202e388                process_udp(pool_buffer*, IPPKT*, unsigned short)
                0x0202d9ac                UDPPacket::Validate()
                0x0202d494                UDPPacket::GetDestinationPort() const
                0x0202d73c                UnregisterUDPFifo(unsigned short)
                0x0202e674                UDPPacket::UDPPacket(os_fifo*, unsigned long)
                0x0202d4c8                UDPPacket::SetDataSize(unsigned short)
                0x0202d804                FixIDDataPacket(UDPPacket&, _InterfaceBlock*)
                0x0202d510                UDPPacket::ResetData()
                0x0202dd58                UDPPacket::~UDPPacket()
                0x0202e6d4                UDPPacket::UDPPacket(os_fifo*, unsigned long)
                0x0202dba4                UDPPacket::SendAndKeepVia(unsigned long, unsigned long, unsigned char)
                0x0202d43c                UDPPacket::SetSourcePort(unsigned short)
                0x0202d458                UDPPacket::GetSourcePort() const
                0x0202d860                FixIDDataPacket(UDPPacket&, int)
                0x0202dda8                UDPPacket::UDPPacket()
                0x0202d564                UDPPacket::GetDestinationAddress()
 .text          0x0202e734     0x538a C:\nburn/lib/NetBurner.a(tcp.o)
                0x0202fe54                SendTcpRst(IPPKT*)
                0x0202ed70                GetTcpState(int)
                0x02030098                InitTCP()
                0x0203281c                _Socket_Private_read
                0x0202ed24                ShortSocketList::ShortSocketList()
                0x0202edd0                SetOutOfOrderbuffers(int, unsigned char)
                0x0202e9a4                GetSocketRemotePort(int)
                0x0202f5c4                socket_struct::MyAdvertisedWindow()
                0x0202f460                SetSocketTxBuffers(int, int)
                0x0202eab8                setsockoption(int, int)
                0x0202f908                TcpSend(socket_struct*, unsigned long, pool_buffer*, unsigned short, unsigned char)
                0x02033998                TCPTimerTask(void*)
                0x02033798                process_tcp(pool_buffer*, IPPKT*, unsigned short)
                0x02030db0                socket_struct::ProcessRST()
                0x02032358                NoBlockconnectvia(unsigned long, unsigned short, unsigned short, unsigned long)
                0x0202ee14                TcpGetLastRxTime(int)
                0x02031eac                abortsocket
                0x02032f14                socket_struct::ProcessDataSegment(TCPPKT*, unsigned short, unsigned char*, pool_buffer*&)
                0x020321d4                connectvia(unsigned long, unsigned short, unsigned short, unsigned long, unsigned long)
                0x02030718                HashSocketList::RemoveSocket(socket_struct*) const
                0x02032424                _Socket_Private_write
                0x0202eaf0                getsockoption(int)
                0x02031a8c                socket_struct::ProcessAck(TCPPKT*)
                0x02032c34                socket_struct::SaveData(unsigned char*, unsigned short, unsigned char)
                0x02030408                GetTcpRtxCount(int)
                0x0202e898                fixoverlap(unsigned long, unsigned long, unsigned long&, unsigned long&)
                0x0202f3e0                socket_struct::SetTimer(unsigned long)
                0x02032330                connect(unsigned long, unsigned short, unsigned short, unsigned long)
                0x0202eb7c                HashSocketList::HashSocketList()
                0x0203095c                GetTcpSocket(TCPPKT*, unsigned long)
                0x020323a8                NoBlockConnect(unsigned long, unsigned short, unsigned short, unsigned long)
                0x0202f060                TcpGetRxBufferSpaceUsed(int)
                0x02030ff0                socket_struct::DoRawSend()
                0x0202f0a0                ShowFdTcpSocket(int)
                0x0202f364                socket_struct::ClearPending(int)
                0x0203047c                ShortSocketList::findsocket(unsigned short, unsigned short, unsigned long) const
                0x020322a8                connect(unsigned long, unsigned short, unsigned short, unsigned long, unsigned long)
                0x02030394                TcpSendKeepAlive(int)
                0x0202e914                getsocketerror(int)
                0x0202eb64                EnableTcpDebug(unsigned short)
                0x020338a4                socket_struct::ProcessTimer()
                0x02030ecc                socket_struct::SetUpNextRetransmit()
                0x0202eb74                HashSocketList::HashSocketList()
                0x0203264c                SockReadWithTimeout
                0x02030328                GetFreeSocketCount()
                0x02031d38                socket_struct::ProcessFIN(TCPPKT*, unsigned short)
                0x0202f63c                FixHeaderAndSendTcp(pool_buffer*, IPPKT*, socket_struct*)
                0x0202eb20                setsocketackbuffers(int, unsigned char)
                0x0202ea98                socket_struct::CleanUpDeletedListener()
                0x0202e854                FindListenSocket(unsigned short, unsigned long)
                0x0202f740                TcpSendwSum(socket_struct*, unsigned long, pool_buffer*, unsigned short, unsigned char, unsigned long)
                0x02030a14                socket_struct::DoCleanup()
                0x02032d24                socket_struct::TestOutofOrder()
                0x0202ee84                TcpGetLastRxInterval(int)
                0x0202e734                GetFirstSeq()
                0x02030294                FREESOCKET(socket_struct*)
                0x02030bec                ShortSocketList::AddSocket(socket_struct*)
                0x020316ac                socket_struct::DoRetransmit(unsigned char)
                0x0202ed34                ShortSocketList::Init()
                0x02030520                ShortSocketList::processTick()
                0x020317c4                socket_struct::CoreConnect(unsigned long, unsigned short, unsigned short, unsigned long)
                0x02032838                _Socket_Private_close
                0x02032978                accept(int, unsigned long*, unsigned short*, unsigned short)
                0x0202ed2c                ShortSocketList::ShortSocketList()
                0x0202f4a0                SetSocketRxBuffers(int, int)
                0x020320cc                listen(unsigned long, unsigned short, unsigned char)
                0x0202eb84                HashSocketList::Init() const
                0x0202eb9c                ShortSocketList::GetFreeShort()
                0x0202e974                GetSocketRemoteAddr(int)
                0x02030884                HashSocketList::findsocket(unsigned short, unsigned short, unsigned long) const
                0x0202eff4                WaitForSocketFlush(int, unsigned long)
                0x0202eb6c                DumpTcpPacket(IPPKT*)
                0x02030cf4                RemoveFromUserCloseList(socket_struct*)
                0x0202e778                ValidateTCP(IPPKT*, unsigned short)
                0x020305d0                ShortSocketList::process(pool_buffer*, TCPPKT*, unsigned long) const
                0x0202e764                socket_struct::SetState(int)
                0x0202f4e0                socket_struct::processoptions(pool_buffer*, TCPPKT*, IPPKT*)
                0x020313a8                socket_struct::DoClose(int)
                0x02031fe0                GetFreeSocket()
                0x0202e9d4                GetSocketLocalPort(int)
                0x020307d0                HashSocketList::AddSocket(socket_struct*) const
                0x0202ece4                ShortSocketList::FreeShort(ShortSocket*) const
                0x0202ea04                socket_struct::CalcRTO(unsigned long)
                0x0202fdfc                socket_struct::OpenWindow()
                0x0202ff68                SendTcpSynRst(IPPKT*)
                0x0202efa4                TcpAllDataAcked(int)
                0x02031328                clrsockoption(int, int)
                0x0202ee48                TcpGetSocketState(int)
                0x0202eb5c                DumpTcpDebug()
                0x0202e944                GetSocketLocalAddr(int)
                0x020330d0                socket_struct::process(pool_buffer*, TCPPKT*)
                0x0202eda4                RegisterTCPReadNotify
                0x0202f998                socket_struct::SendState(unsigned short, pool_buffer*)
 *fill*         0x02033abe        0x2 00
 .text          0x02033ac0      0x5aa C:\nburn/lib/NetBurner.a(http.o)
                0x02033ac0                StartHTTP
                0x02033bf8                HttpMain(void*)
                0x02033b04                processHttpRequest(char**, char*, char*, int, HTTP_Request&)
 *fill*         0x0203406a        0x2 00
 .text          0x0203406c      0xbee C:\nburn/lib/NetBurner.a(httpinternal.o)
                0x020340a4                SetNewPostHandler
                0x02034744                BaseDoGet
                0x020340ec                SetNewMultiPartHandler
                0x020344ac                SendHTMLHeader
                0x02034074                append(char*&, char*)
                0x02034104                SetNewMultiPartExtractHandler
                0x02034878                HTTP_Request::Respond(int)
                0x020345e0                writesafestring
                0x020346f0                ShowIPOnFd(int, unsigned long)
                0x020343ec                SendGifHeader
                0x02034408                SendTextHeader
                0x02034424                BaseDoHead
                0x02034350                NotFoundResponse
                0x02034098                BaseDoPost
                0x0203411c                SetNewErrorHandler
                0x02034168                ExtractPostData
                0x020343a4                RedirectResponse
                0x020349ac                HTTP_Request::ProcessLine(char*)
                0x020340bc                SetNewGetHandler
                0x0203406c                StopHTTP
                0x02034134                InitHttp()
                0x020340d4                SetNewHeadHandler
                0x020344c8                writeallsafestring
                0x0203482c                SendHTMLHeaderWCookie
                0x020342fc                httpstricmp
 *fill*         0x02034c5a        0x2 00
 .text          0x02034c5c      0x630 C:\nburn/lib/NetBurner.a(htmldecomp.o)
                0x02034d00                SendHtml(int, char*, int, char const*)
                0x02034fd8                SendData(HTML_FILE_RECORD*, int, char const*)
                0x02035098                GetRecordFromName(char*)
                0x02034c5c                SendHeader(int, char const*, int)
                0x020351e4                SendFullResponse(char*, int)
                0x02035118                SendFileFragment(char*, int, char const*)
                0x02034cf4                SendCompressed(int, char*, int)
                0x02035144                SendHeaderResponse(char*, int)
                0x02034cd8                SendXMLHeader(int)
 .text          0x0203528c        0x8 C:\nburn/lib/NetBurner.a(htmlvarplaceholder.o)
                0x0203528c                DoHtmlVariable(int, unsigned short)
 .text          0x02035294      0x69e C:\nburn/lib/NetBurner.a(iosys.o)
                0x020356d0                SetDataAvail
                0x02035570                writeall
                0x020355d0                RawCheckSelects()
                0x0203567c                SetHaveError
                0x0203570c                RemoveSelect(PendingSelect*)
                0x02035694                SetWriteAvail
                0x02035460                ZeroWaitSelect
                0x0203578c                AddSelect(PendingSelect*)
                0x020353b4                FD_ISSET
                0x0203535c                ClrDataAvail
                0x020357e4                select
                0x02035344                ClrWriteAvail
                0x02035648                CheckSelects()
                0x02035514                writestring
                0x02035424                countbits(fd_set*)
                0x02035294                FD_OVERLAP(fd_set*, fd_set*)
                0x020354e4                dataavail
                0x020352d0                FD_ZERO
                0x02035374                FD_SET
                0x0203532c                ClrHaveError
                0x02035400                countdwbits(unsigned long)
                0x02035884                ReadWithTimeout
                0x020352e8                FD_CLR
 *fill*         0x02035932        0x2 00
 .text          0x02035934       0x26 C:\nburn/lib/NetBurner.a(new_ops.o)
                0x02035934                operator new(unsigned long)
 *fill*         0x0203595a        0x2 00
 .text          0x0203595c      0x71c C:\nburn/lib/NetBurner.a(autoip.o)
                0x02035b98                AutoIPClient::AutoIPClient(int)
                0x02035a78                AutoIPClient::stop()
                0x02035ec4                AutoIPClient::arpCheck()
                0x020359e8                AutoIPClient::getNextTick()
                0x02035d20                AutoIPClient::announce()
                0x0203599c                AutoIPClient::addressCollision()
                0x020359d8                AutoIPClient::getState()
                0x02035dfc                AutoIPClient::startArp()
                0x02036020                AutoIPClient::staticTimeTick()
                0x0203595c                AutoIPClient::start()
                0x02035c14                AutoIPClient::AutoIPClient(int)
                0x020359f8                AutoIPClient::tickDelay(int)
                0x02035a20                AutoIPClient::negotiate()
                0x02035d64                AutoIPClient::setRNG()
                0x02035b34                AutoIPClient::~AutoIPClient()
                0x02035fb0                AutoIPClient::timeTick()
                0x02035ab0                AutoIPClient::restart()
                0x02035c90                AddAutoIPInterface(int)
                0x02035ad0                AutoIPClient::~AutoIPClient()
                0x02035dc0                AutoIPClient::generateNewIPAddr()
 .text          0x02036078     0x1d58 C:\nburn/lib/NetBurner.a(dhcpc.o)
                0x020362bc                CompareChaddr(unsigned char*, unsigned char*)
                0x0203693c                DhcpObject::DhcpObject(int)
                0x0203793c                DhcpObject::RestartDHCP()
                0x020367f4                DhcpObject::StopBOOTP()
                0x020367e0                DhcpObject::StopProcessing()
                0x02036180                DHCPMessage::ResetBytes()
                0x020361e8                DHCPMessage::SetRandomXid()
                0x02036858                DhcpObject::~DhcpObject()
                0x02037d90                DhcpObject::staticDHCPTimer()
                0x020362a0                DHCPMessage::GetOptionData(unsigned char)
                0x02037c64                DhcpObject::RenewDHCP()
                0x02036ae4                DHCPMessage::MsgForInterface(int)
                0x020373ec                DhcpObject::StopDHCP()
                0x02037644                DhcpObject::ReTransmitPacket(unsigned long)
                0x020368c8                DhcpObject::UpdateIPRuntimeVars(unsigned char)
                0x02037738                DhcpObject::StartDHCP()
                0x020368b4                SetDHCPDiscoverSeconds(unsigned long)
                0x02037bf0                DhcpObject::staticDHCPPacket(pool_buffer*)
                0x0203634c                AddDhcpOptions(DHCPMessage&, int&)
                0x02037444                DhcpObject::CreateDhcpRenewMsg(DHCPMessage&)
                0x020362f8                ValidDhcpMsg(unsigned char*)
                0x02036a10                DhcpObject::DhcpObject(int)
                0x020367fc                DhcpObject::~DhcpObject()
                0x020364a4                DhcpObject::DhcpConfig(DHCPMessage&)
                0x020372f8                DhcpObject::CreateDhcpReleaseMsg(DHCPMessage&)
                0x020367b4                DhcpObject::GetRemainingDhcpLeaseTime()
                0x02036224                DHCPMessage::GetOptionData(unsigned char, int&)
                0x02036b1c                DHCPMessage::DHCPMessage(unsigned char*)
                0x02037968                __restartDHCP(DhcpObject*)
                0x02037c90                DhcpObject::DHCPTimer()
                0x02036078                DHCPMessage::DHCPMessage()
                0x02037768                GetDHCPAddress(int)
                0x02036b44                DHCPMessage::DHCPMessage(unsigned char*)
                0x02036788                DhcpObject::GetDHCPState()
                0x02036404                DhcpObject::BootpConfig(DHCPMessage&)
                0x0203788c                GetDHCPAddressIfNecessary(int)
                0x0203770c                DhcpObject::StartBOOTP()
                0x02036fb0                CreateDhcpDiscoverMsg(DHCPMessage&, int)
                0x02036f3c                DHCPMessage::SendMsg(unsigned long, int)
                0x02036148                DHCPMessage::ClearOptions()
                0x02036798                DhcpObject::ValidDhcpLease()
                0x02037970                DhcpObject::DHCPPacket(pool_buffer*)
                0x020371a4                DhcpObject::CreateBootpMsg(DHCPMessage&)
                0x02036b6c                CreateDhcpRequestMsg(DHCPMessage&, DHCPMessage&, int)
                0x020360e0                DHCPMessage::DHCPMessage()
                0x02037c38                DhcpObject::RebindDHCP()
 .text          0x02037dd0      0x4b2 C:\nburn/lib/NetBurner.a(netinterface.o)
                0x020381b4                InitializeNetwork(void (*)(pool_buffer*, EFRAME*, unsigned short), void (*)(pool_buffer*, EFRAME*))
                0x02037e88                InterfaceIP(int)
                0x02037f7c                GetEframe(pool_buffer*)
                0x02038154                SaveIfConfig(ConfigRecord*, int)
                0x02038048                RegisterMultiHomeInterface(_InterfaceBlock*)
                0x02037dd0                GetFirstInterface()
                0x02038184                GetIfConfig(int)
                0x02037f38                InterfaceMAC(int)
                0x02037e34                GetInterFaceBlock(int)
                0x02037eb4                InterfaceDNS(int)
                0x02037ee0                InterfaceMASK(int)
                0x02037df0                GetnextInterface(int)
                0x02038220                TransmitBuffer(pool_buffer*, int)
                0x02037fe8                DisableMulticast(MACADR, int)
                0x020380b0                RegisterInterface(_InterfaceBlock*)
                0x02037f90                EnableMulticast(MACADR, int)
                0x02038120                Removeinterface(int)
                0x02038040                StopNetworks()
                0x02037e60                GetInterfaceNumber(_InterfaceBlock*)
                0x02037f0c                InterfaceGate(int)
 *fill*         0x02038282        0x2 00
 .text          0x02038284      0x5c8 C:\nburn/lib/NetBurner.a(taskmon.o)
                0x0203878c                ProcessTaskPacket(UDPPacket&, int)
                0x02038284                EnableTaskMonitor()
                0x02038298                BufferDumpTCBState(os_tcb*)
 .text          0x0203884c     0x131e C:\nburn/lib/NetBurner.a(smarttrap.o)
                0x02038880                EnableSmartTraps()
                0x02038960                WalkStack(os_tcb*, unsigned long, unsigned long)
                0x02038e40                smart_trap_asm
                0x02038c60                Local_OutTCBState(os_tcb*, unsigned long, unsigned long)
                0x0203884c                SafeRead(unsigned long)
                0x0203889c                Local_OutHex(unsigned long, int)
                0x02038e38                Smart_Trap_Holder()
                0x02038930                Local_OutString(char const*)
                0x020389dc                Local_ShowTaskName(os_tcb volatile*)
 *fill*         0x02039b6a        0x2 00
 .text          0x02039b6c      0x538 C:\nburn/lib/NetBurner.a(autoupdate.o)
                0x02039ff4                ProcessAutoUpdatePacket(UDPPacket&)
                0x02039d28                DoData(UDPPacket&)
                0x02039b6c                EnableAutoUpdate
                0x02039b80                DoReboot()
                0x02039bb0                DoExecute(UDPPacket&, int)
                0x02039e18                DoStart(UDPPacket&)
 .text          0x0203a0a4       0x52 C:\nburn/lib/NetBurner.a(device.o)
                0x0203a0c4                DeviceInitializeSem
                0x0203a0a4                DeviceGetQspiSem()
                0x0203a0b4                DeviceGetI2cSem()
 *fill*         0x0203a0f6        0x2 00
 .text          0x0203a0f8     0x1c9e C:\nburn/lib/MOD5270.a(serial.o)
                0x0203bd1c                real_SER0_ISR
                0x0203a0f8                WakeTx(int)
                0x0203a590                Serial485ForceTxActive(int, int)
                0x0203b110                SerialClose
                0x0203b020                SendBreak
                0x0203ad38                SerialSendComplete(int)
                0x0203b258                OpenSerial
                0x0203aba4                GetUartErrorReg
                0x0203adc0                fShowSerialData(__sFILE*)
                0x0203a3c0                fake_SER0_ISR()
                0x0203a4a8                fake_SER2_ISR()
                0x0203a418                SER1_ISR
                0x0203a4fc                SerialEnableTxFlow
                0x0203a544                SerialEnableRxFlow
                0x0203a190                DoSerIsr(int)
                0x0203aa7c                Serial485HalfDupMode
                0x0203a414                fake_SER1_ISR()
                0x0203a890                SerialEnableHwRxFlow
                0x0203b8b4                serread
                0x0203bbfc                BasePutChar(int, unsigned char)
                0x0203b8d0                BaseGetChar(int)
                0x0203bd58                real_SER2_ISR
                0x0203b698                serreadwto
                0x0203badc                serwriteaddress
                0x0203a468                real_SER1_ISR
                0x0203b978                serwrite
                0x0203b234                serexternalclose
                0x0203a3c4                SER0_ISR
                0x0203a4ac                SER2_ISR
                0x0203a68c                SerialEnableHwTxFlow
 *fill*         0x0203bd96        0x2 00
 .text          0x0203bd98     0x1472 C:\nburn/lib/MOD5270.a(ethernet.o)
                0x0203c510                AddEthernetInterface()
                0x0203bf7c                StopEnet()
                0x0203c224                ResetEnet()
                0x0203c0bc                FindSpeedDuplex()
                0x0203bd98                read_eth_addr(MACADR*)
                0x0203c5c4                WarmEnetReset()
                0x0203d05c                real_rxenetisr
                0x0203bdc4                fake_rxenetisr()
                0x0203bdc8                rxenetisr
                0x0203be18                fake_txenetisr()
                0x0203c664                EnablePHY()
                0x0203c438                EthMultifunc(MACADR, unsigned char)
                0x0203be6c                GetMII(unsigned char, unsigned char)
                0x0203c9a4                ProcessLinkStatus()
                0x0203c71c                ResetEnetPart2()
                0x0203be1c                txenetisr
                0x0203bef0                SetMII(unsigned char, unsigned char, unsigned short)
                0x0203c454                InitializeEthernet()
                0x0203ccb8                real_txenetisr
                0x0203bfac                DisablePHY()
                0x0203c6dc                ManualEthernetConfig(unsigned char, unsigned char, unsigned char)
                0x0203bfec                FindPHYAddr()
                0x0203cb64                EthTransmitBuffer(pool_buffer*)
                0x0203ceb0                Ether_ProcessTask(void*)
 *fill*         0x0203d20a        0x2 00
 .text          0x0203d20c      0x152 C:\nburn/lib/MOD5270.a(etherprint.o)
                0x0203d20c                EtherLink()
                0x0203d220                EtherSpeed100()
                0x0203d240                showBinary(unsigned short, unsigned short)
                0x0203d2cc                showMii(unsigned char, unsigned char, char const*, unsigned short)
                0x0203d230                EtherDuplex()
                0x0203d334                switchMiiPage(unsigned long)
 *fill*         0x0203d35e        0x2 00
 .text          0x0203d360      0x196 C:\nburn/lib/MOD5270.a(emulticast.o)
                0x0203d444                EthDisableMulticast(MACADR)
                0x0203d3a0                EthEnableMulticast(MACADR)
                0x0203d360                GetMultiCastCRC(MACADR)
 *fill*         0x0203d4f6        0x2 00
 .text          0x0203d4f8      0x23c C:\nburn/lib/NetBurner.a(extraio.o)
                0x0203d528                ExpandWrite(int, char const*, int)
                0x0203d558                ExpandClose(int)
                0x0203d588                InitExtras()
                0x0203d5c4                GetExtraFD
                0x0203d4f8                ExpandRead(int, char*, int)
                0x0203d6f8                GetFreeExtraFDCount
                0x0203d654                FreeExtraFd
                0x0203d68c                GetExtraData
                0x0203d6c0                GetExtraExtraData
 .text          0x0203d734      0x1f2 C:\nburn/lib/NetBurner.a(netrx.o)
                0x0203d734                NetDoRX(pool_buffer*, unsigned short, int)
 *fill*         0x0203d926        0x2 00
 .text          0x0203d928        0x0 c:/nburn/gcc-m68k/bin/../lib/gcc/m68k-elf/4.2.1/../../../../m68k-elf/lib/m5206e\libstdc++.a(functexcept.o)
 .text          0x0203d928        0x0 c:/nburn/gcc-m68k/bin/../lib/gcc/m68k-elf/4.2.1/../../../../m68k-elf/lib/m5206e\libstdc++.a(ios_failure.o)
 .text          0x0203d928        0x0 c:/nburn/gcc-m68k/bin/../lib/gcc/m68k-elf/4.2.1/../../../../m68k-elf/lib/m5206e\libstdc++.a(stdexcept.o)
 .text          0x0203d928        0x0 c:/nburn/gcc-m68k/bin/../lib/gcc/m68k-elf/4.2.1/../../../../m68k-elf/lib/m5206e\libstdc++.a(tree.o)
 .text          0x0203d928        0x0 c:/nburn/gcc-m68k/bin/../lib/gcc/m68k-elf/4.2.1/../../../../m68k-elf/lib/m5206e\libstdc++.a(string-inst.o)
 .text          0x0203d928        0x0 c:/nburn/gcc-m68k/bin/../lib/gcc/m68k-elf/4.2.1/../../../../m68k-elf/lib/m5206e\libstdc++.a(eh_throw.o)
 .text          0x0203d928        0x0 c:/nburn/gcc-m68k/bin/../lib/gcc/m68k-elf/4.2.1/../../../../m68k-elf/lib/m5206e\libstdc++.a(new_handler.o)
 .text          0x0203d928        0x0 c:/nburn/gcc-m68k/bin/../lib/gcc/m68k-elf/4.2.1/../../../../m68k-elf/lib/m5206e\libstdc++.a(eh_globals.o)
 .text          0x0203d928        0x0 c:/nburn/gcc-m68k/bin/../lib/gcc/m68k-elf/4.2.1/../../../../m68k-elf/lib/m5206e\libstdc++.a(eh_exception.o)
 .text          0x0203d928        0x0 c:/nburn/gcc-m68k/bin/../lib/gcc/m68k-elf/4.2.1/../../../../m68k-elf/lib/m5206e\libstdc++.a(guard.o)
 .text          0x0203d928        0x0 c:/nburn/gcc-m68k/bin/../lib/gcc/m68k-elf/4.2.1/../../../../m68k-elf/lib/m5206e\libstdc++.a(eh_catch.o)
 .text          0x0203d928        0x0 c:/nburn/gcc-m68k/bin/../lib/gcc/m68k-elf/4.2.1/../../../../m68k-elf/lib/m5206e\libstdc++.a(eh_terminate.o)
 .text          0x0203d928        0x0 c:/nburn/gcc-m68k/bin/../lib/gcc/m68k-elf/4.2.1/../../../../m68k-elf/lib/m5206e\libstdc++.a(bad_typeid.o)
 .text          0x0203d928        0x0 c:/nburn/gcc-m68k/bin/../lib/gcc/m68k-elf/4.2.1/../../../../m68k-elf/lib/m5206e\libstdc++.a(del_op.o)
 .text          0x0203d928        0x0 c:/nburn/gcc-m68k/bin/../lib/gcc/m68k-elf/4.2.1/../../../../m68k-elf/lib/m5206e\libstdc++.a(class_type_info.o)
 .text          0x0203d928        0x0 c:/nburn/gcc-m68k/bin/../lib/gcc/m68k-elf/4.2.1/../../../../m68k-elf/lib/m5206e\libstdc++.a(eh_term_handler.o)
 .text          0x0203d928        0x0 c:/nburn/gcc-m68k/bin/../lib/gcc/m68k-elf/4.2.1/../../../../m68k-elf/lib/m5206e\libstdc++.a(eh_personality.o)
 .text          0x0203d928        0x0 c:/nburn/gcc-m68k/bin/../lib/gcc/m68k-elf/4.2.1/../../../../m68k-elf/lib/m5206e\libstdc++.a(pure.o)
 .text          0x0203d928        0x0 c:/nburn/gcc-m68k/bin/../lib/gcc/m68k-elf/4.2.1/../../../../m68k-elf/lib/m5206e\libstdc++.a(eh_alloc.o)
 .text          0x0203d928        0x0 c:/nburn/gcc-m68k/bin/../lib/gcc/m68k-elf/4.2.1/../../../../m68k-elf/lib/m5206e\libstdc++.a(bad_cast.o)
 .text          0x0203d928        0x0 c:/nburn/gcc-m68k/bin/../lib/gcc/m68k-elf/4.2.1/../../../../m68k-elf/lib/m5206e\libstdc++.a(eh_unex_handler.o)
 .text          0x0203d928        0x0 c:/nburn/gcc-m68k/bin/../lib/gcc/m68k-elf/4.2.1/../../../../m68k-elf/lib/m5206e\libstdc++.a(si_class_type_info.o)
 .text          0x0203d928        0x0 c:/nburn/gcc-m68k/bin/../lib/gcc/m68k-elf/4.2.1/../../../../m68k-elf/lib/m5206e\libstdc++.a(vterminate.o)
 .text          0x0203d928        0x0 c:/nburn/gcc-m68k/bin/../lib/gcc/m68k-elf/4.2.1/../../../../m68k-elf/lib/m5206e\libstdc++.a(eh_call.o)
 .text          0x0203d928     0x4ae6 c:/nburn/gcc-m68k/bin/../lib/gcc/m68k-elf/4.2.1/../../../../m68k-elf/lib/m5206e\libstdc++.a(cp-demangle.o)
                0x02042336                __cxa_demangle
 *fill*         0x0204240e        0x2 00
 .text          0x02042410        0x0 c:/nburn/gcc-m68k/bin/../lib/gcc/m68k-elf/4.2.1/../../../../m68k-elf/lib/m5206e\libstdc++.a(tinfo.o)
 .text          0x02042410        0x0 c:/nburn/gcc-m68k/bin/../lib/gcc/m68k-elf/4.2.1/../../../../m68k-elf/lib/m5206e\libstdc++.a(eh_type.o)
 .text          0x02042410       0xf8 c:/nburn/gcc-m68k/bin/../lib/gcc/m68k-elf/4.2.1/../../../../m68k-elf/lib/m5206e\libm.a(lib_a-s_round.o)
                0x02042410                round
 .text          0x02042508      0x10a c:/nburn/gcc-m68k/bin/../lib/gcc/m68k-elf/4.2.1/../../../../m68k-elf/lib/m5206e\libm.a(lib_a-wf_asin.o)
                0x02042508                asinf
 *fill*         0x02042612        0x2 00
 .text          0x02042614      0x6b0 c:/nburn/gcc-m68k/bin/../lib/gcc/m68k-elf/4.2.1/../../../../m68k-elf/lib/m5206e\libm.a(lib_a-wf_pow.o)
                0x02042614                powf
 .text          0x02042cc4      0x3fc c:/nburn/gcc-m68k/bin/../lib/gcc/m68k-elf/4.2.1/../../../../m68k-elf/lib/m5206e\libm.a(lib_a-ef_asin.o)
                0x02042cc4                __ieee754_asinf
 .text          0x020430c0      0xe36 c:/nburn/gcc-m68k/bin/../lib/gcc/m68k-elf/4.2.1/../../../../m68k-elf/lib/m5206e\libm.a(lib_a-ef_pow.o)
                0x020430c0                __ieee754_powf
 *fill*         0x02043ef6        0x2 00
 .text          0x02043ef8      0x110 c:/nburn/gcc-m68k/bin/../lib/gcc/m68k-elf/4.2.1/../../../../m68k-elf/lib/m5206e\libm.a(lib_a-ef_sqrt.o)
                0x02043ef8                __ieee754_sqrtf
 .text          0x02044008       0x10 c:/nburn/gcc-m68k/bin/../lib/gcc/m68k-elf/4.2.1/../../../../m68k-elf/lib/m5206e\libm.a(lib_a-sf_fabs.o)
                0x02044008                fabsf
 .text          0x02044018       0x1c c:/nburn/gcc-m68k/bin/../lib/gcc/m68k-elf/4.2.1/../../../../m68k-elf/lib/m5206e\libm.a(lib_a-sf_finite.o)
                0x02044018                finitef
 .text          0x02044034       0x1c c:/nburn/gcc-m68k/bin/../lib/gcc/m68k-elf/4.2.1/../../../../m68k-elf/lib/m5206e\libm.a(lib_a-sf_isnan.o)
                0x02044034                isnanf
 .text          0x02044050      0x192 c:/nburn/gcc-m68k/bin/../lib/gcc/m68k-elf/4.2.1/../../../../m68k-elf/lib/m5206e\libm.a(lib_a-sf_scalbn.o)
                0x02044050                scalbnf
 *fill*         0x020441e2        0x2 00
 .text          0x020441e4        0x0 c:/nburn/gcc-m68k/bin/../lib/gcc/m68k-elf/4.2.1/../../../../m68k-elf/lib/m5206e\libm.a(lib_a-s_lib_ver.o)
 .text          0x020441e4        0xa c:/nburn/gcc-m68k/bin/../lib/gcc/m68k-elf/4.2.1/../../../../m68k-elf/lib/m5206e\libm.a(lib_a-s_matherr.o)
                0x020441e4                matherr
 *fill*         0x020441ee        0x2 00
 .text          0x020441f0      0x268 c:/nburn/gcc-m68k/bin/../lib/gcc/m68k-elf/4.2.1/../../../../m68k-elf/lib/m5206e\libm.a(lib_a-s_rint.o)
                0x020441f0                rint
 .text          0x02044458       0x1c c:/nburn/gcc-m68k/bin/../lib/gcc/m68k-elf/4.2.1/../../../../m68k-elf/lib/m5206e\libm.a(lib_a-sf_copysign.o)
                0x02044458                copysignf
 .text          0x02044474      0xba0 c:/nburn/gcc-m68k/bin/../lib/gcc/m68k-elf/4.2.1/m5206e\libgcc.a(_double.o)
                0x02044f72                __cmpdf2
                0x020444d4                __adddf3
                0x02044e3c                __negdf2
                0x02044b4c                __divdf3
                0x02044e9a                __cmpdf2_internal
                0x02044970                __muldf3
                0x020444ce                __subdf3
 .text          0x02045014      0x7ca c:/nburn/gcc-m68k/bin/../lib/gcc/m68k-elf/4.2.1/m5206e\libgcc.a(_float.o)
                0x02045486                __divsf3
                0x0204505c                __subsf3
                0x0204567a                __negsf2
                0x0204576c                __cmpsf2
                0x020456cc                __cmpsf2_internal
                0x02045344                __mulsf3
                0x02045062                __addsf3
 *fill*         0x020457de        0x2 00
 .text          0x020457e0       0x74 c:/nburn/gcc-m68k/bin/../lib/gcc/m68k-elf/4.2.1/m5206e\libgcc.a(_floatex.o)
                0x020457ec                $_exception_handler
                0x020457e0                __clear_sticky_bit
 .text          0x02045854       0x22 c:/nburn/gcc-m68k/bin/../lib/gcc/m68k-elf/4.2.1/m5206e\libgcc.a(_nedf2.o)
                0x02045854                __nedf2
 *fill*         0x02045876        0x2 00
 .text          0x02045878       0x22 c:/nburn/gcc-m68k/bin/../lib/gcc/m68k-elf/4.2.1/m5206e\libgcc.a(_gtdf2.o)
                0x02045878                __gtdf2
 *fill*         0x0204589a        0x2 00
 .text          0x0204589c       0x22 c:/nburn/gcc-m68k/bin/../lib/gcc/m68k-elf/4.2.1/m5206e\libgcc.a(_gedf2.o)
                0x0204589c                __gedf2
 *fill*         0x020458be        0x2 00
 .text          0x020458c0       0x22 c:/nburn/gcc-m68k/bin/../lib/gcc/m68k-elf/4.2.1/m5206e\libgcc.a(_ltdf2.o)
                0x020458c0                __ltdf2
 *fill*         0x020458e2        0x2 00
 .text          0x020458e4       0x22 c:/nburn/gcc-m68k/bin/../lib/gcc/m68k-elf/4.2.1/m5206e\libgcc.a(_ledf2.o)
                0x020458e4                __ledf2
 *fill*         0x02045906        0x2 00
 .text          0x02045908       0x1a c:/nburn/gcc-m68k/bin/../lib/gcc/m68k-elf/4.2.1/m5206e\libgcc.a(_eqsf2.o)
                0x02045908                __eqsf2
 *fill*         0x02045922        0x2 00
 .text          0x02045924       0x1a c:/nburn/gcc-m68k/bin/../lib/gcc/m68k-elf/4.2.1/m5206e\libgcc.a(_gtsf2.o)
                0x02045924                __gtsf2
 *fill*         0x0204593e        0x2 00
 .text          0x02045940       0x1a c:/nburn/gcc-m68k/bin/../lib/gcc/m68k-elf/4.2.1/m5206e\libgcc.a(_gesf2.o)
                0x02045940                __gesf2
 *fill*         0x0204595a        0x2 00
 .text          0x0204595c       0x1a c:/nburn/gcc-m68k/bin/../lib/gcc/m68k-elf/4.2.1/m5206e\libgcc.a(_ltsf2.o)
                0x0204595c                __ltsf2
 *fill*         0x02045976        0x2 00
 .text          0x02045978       0x1a c:/nburn/gcc-m68k/bin/../lib/gcc/m68k-elf/4.2.1/m5206e\libgcc.a(_lesf2.o)
                0x02045978                __lesf2
 *fill*         0x02045992        0x2 00
 .text          0x02045994       0x58 c:/nburn/gcc-m68k/bin/../lib/gcc/m68k-elf/4.2.1/m5206e\libgcc.a(_fixunssfsi.o)
                0x02045994                __fixunssfsi
 .text          0x020459ec       0x7a c:/nburn/gcc-m68k/bin/../lib/gcc/m68k-elf/4.2.1/m5206e\libgcc.a(_fixunsdfsi.o)
                0x020459ec                __fixunsdfsi
 *fill*         0x02045a66        0x2 00
 .text          0x02045a68       0x5c c:/nburn/gcc-m68k/bin/../lib/gcc/m68k-elf/4.2.1/m5206e\libgcc.a(_fixdfdi.o)
                0x02045a68                __fixdfdi
 .text          0x02045ac4       0x88 c:/nburn/gcc-m68k/bin/../lib/gcc/m68k-elf/4.2.1/m5206e\libgcc.a(_fixunsdfdi.o)
                0x02045ac4                __fixunsdfdi
 .text          0x02045b4c      0x4f6 c:/nburn/gcc-m68k/bin/../lib/gcc/m68k-elf/4.2.1/m5206e\libgcc.a(_udivdi3.o)
                0x02045b4c                __udivdi3
 *fill*         0x02046042        0x2 00
 .text          0x02046044      0x4f8 c:/nburn/gcc-m68k/bin/../lib/gcc/m68k-elf/4.2.1/m5206e\libgcc.a(_umoddi3.o)
                0x02046044                __umoddi3
 .text          0x0204653c      0x49a c:/nburn/gcc-m68k/bin/../lib/gcc/m68k-elf/4.2.1/m5206e\libgcc.a(fpgnulib.o)
                0x020469bc                __fixsfsi
                0x020466a4                __floatsidf
                0x0204677a                __extendsfdf2
                0x02046632                __floatunsidf
                0x0204693c                __fixdfsi
                0x02046760                __floatsisf
                0x02046814                __truncdfsf2
                0x0204653c                __unordsf2
                0x02046746                __floatunsisf
                0x0204659e                __unorddf2
 *fill*         0x020469d6        0x2 00
 .text          0x020469d8     0x1f0e c:/nburn/gcc-m68k/bin/../lib/gcc/m68k-elf/4.2.1/m5206e\libgcc.a(unwind-dw2.o)
                0x02046d7a                _Unwind_GetIPInfo
                0x02046a5e                _Unwind_GetIP
                0x0204874a                _Unwind_Resume_or_Rethrow
                0x02046a90                _Unwind_GetRegionStart
                0x02048452                _Unwind_Backtrace
                0x02046a4e                _Unwind_GetCFA
                0x02047648                __frame_state_for
                0x020487d8                _Unwind_Resume
                0x02046ac0                _Unwind_DeleteException
                0x0204856e                _Unwind_RaiseException
                0x02046a6e                _Unwind_SetIP
                0x02046ab0                _Unwind_GetTextRelBase
                0x02046d56                _Unwind_FindEnclosingFunction
                0x02046a80                _Unwind_GetLanguageSpecificData
                0x0204885e                _Unwind_ForcedUnwind
                0x02046ade                _Unwind_SetGR
                0x02046b44                _Unwind_GetGR
                0x02046aa0                _Unwind_GetDataRelBase
 *fill*         0x020488e6        0x2 00
 .text          0x020488e8     0x126c c:/nburn/gcc-m68k/bin/../lib/gcc/m68k-elf/4.2.1/m5206e\libgcc.a(unwind-dw2-fde.o)
                0x02049a06                _Unwind_Find_FDE
                0x020491fc                __register_frame
                0x020491da                __register_frame_table
                0x0204895e                __register_frame_info_bases
                0x0204993e                __deregister_frame_info
                0x02049880                __deregister_frame_info_bases
                0x020489ca                __register_frame_info_table_bases
                0x02049948                __deregister_frame
                0x02048a1c                __register_frame_info_table
                0x020489ae                __register_frame_info
 .text          0x02049b54        0x0 c:/nburn/gcc-m68k/bin/../lib/gcc/m68k-elf/4.2.1/m5206e\libgcc.a(_clz.o)
 .text          0x02049b54       0x18 c:/nburn/gcc-m68k/bin/../lib/gcc/m68k-elf/4.2.1/../../../../m68k-elf/lib/m5206e\libc.a(lib_a-abort.o)
                0x02049b54                abort
 .text          0x02049b6c       0x14 c:/nburn/gcc-m68k/bin/../lib/gcc/m68k-elf/4.2.1/../../../../m68k-elf/lib/m5206e\libc.a(lib_a-atof.o)
                0x02049b6c                atof
 .text          0x02049b80       0x34 c:/nburn/gcc-m68k/bin/../lib/gcc/m68k-elf/4.2.1/../../../../m68k-elf/lib/m5206e\libc.a(lib_a-atoi.o)
                0x02049b80                _atoi_r
                0x02049b9c                atoi
 .text          0x02049bb4       0x64 c:/nburn/gcc-m68k/bin/../lib/gcc/m68k-elf/4.2.1/../../../../m68k-elf/lib/m5206e\libc.a(lib_a-bsearch.o)
                0x02049bb4                bsearch
 .text          0x02049c18        0x0 c:/nburn/gcc-m68k/bin/../lib/gcc/m68k-elf/4.2.1/../../../../m68k-elf/lib/m5206e\libc.a(lib_a-ctype_.o)
 .text          0x02049c18       0x1e c:/nburn/gcc-m68k/bin/../lib/gcc/m68k-elf/4.2.1/../../../../m68k-elf/lib/m5206e\libc.a(lib_a-cxa_atexit.o)
                0x02049c18                __cxa_atexit
 *fill*         0x02049c36        0x2 00
 .text          0x02049c38       0x5e c:/nburn/gcc-m68k/bin/../lib/gcc/m68k-elf/4.2.1/../../../../m68k-elf/lib/m5206e\libc.a(lib_a-div.o)
                0x02049c38                div
 *fill*         0x02049c96        0x2 00
 .text          0x02049c98        0xe c:/nburn/gcc-m68k/bin/../lib/gcc/m68k-elf/4.2.1/../../../../m68k-elf/lib/m5206e\libc.a(lib_a-errno.o)
                0x02049c98                __errno
 *fill*         0x02049ca6        0x2 00
 .text          0x02049ca8       0xaa c:/nburn/gcc-m68k/bin/../lib/gcc/m68k-elf/4.2.1/../../../../m68k-elf/lib/m5206e\libc.a(lib_a-fdopen.o)
                0x02049ca8                _fdopen_r
                0x02049d38                fdopen
 *fill*         0x02049d52        0x2 00
 .text          0x02049d54      0x198 c:/nburn/gcc-m68k/bin/../lib/gcc/m68k-elf/4.2.1/../../../../m68k-elf/lib/m5206e\libc.a(lib_a-fflush.o)
                0x02049d54                fflush
 .text          0x02049eec      0x25e c:/nburn/gcc-m68k/bin/../lib/gcc/m68k-elf/4.2.1/../../../../m68k-elf/lib/m5206e\libc.a(lib_a-findfp.o)
                0x02049f46                __sinit
                0x02049ffe                __sfmoreglue
                0x02049fec                _cleanup
                0x02049fd2                _cleanup_r
                0x0204a06c                __sfp
 *fill*         0x0204a14a        0x2 00
 .text          0x0204a14c       0x24 c:/nburn/gcc-m68k/bin/../lib/gcc/m68k-elf/4.2.1/../../../../m68k-elf/lib/m5206e\libc.a(lib_a-fiprintf.o)
                0x0204a14c                fiprintf
 .text          0x0204a170       0x96 c:/nburn/gcc-m68k/bin/../lib/gcc/m68k-elf/4.2.1/../../../../m68k-elf/lib/m5206e\libc.a(lib_a-flags.o)
                0x0204a170                __sflags
 *fill*         0x0204a206        0x2 00
 .text          0x0204a208       0x24 c:/nburn/gcc-m68k/bin/../lib/gcc/m68k-elf/4.2.1/../../../../m68k-elf/lib/m5206e\libc.a(lib_a-fprintf.o)
                0x0204a208                fprintf
 .text          0x0204a22c       0xaa c:/nburn/gcc-m68k/bin/../lib/gcc/m68k-elf/4.2.1/../../../../m68k-elf/lib/m5206e\libc.a(lib_a-fputc.o)
                0x0204a27a                _fputc_r
                0x0204a22c                fputc
 *fill*         0x0204a2d6        0x2 00
 .text          0x0204a2d8       0x90 c:/nburn/gcc-m68k/bin/../lib/gcc/m68k-elf/4.2.1/../../../../m68k-elf/lib/m5206e\libc.a(lib_a-fputs.o)
                0x0204a2d8                _fputs_r
                0x0204a34e                fputs
 .text          0x0204a368      0x37e c:/nburn/gcc-m68k/bin/../lib/gcc/m68k-elf/4.2.1/../../../../m68k-elf/lib/m5206e\libc.a(lib_a-fvwrite.o)
                0x0204a368                __sfvwrite_r
 *fill*         0x0204a6e6        0x2 00
 .text          0x0204a6e8       0xe4 c:/nburn/gcc-m68k/bin/../lib/gcc/m68k-elf/4.2.1/../../../../m68k-elf/lib/m5206e\libc.a(lib_a-fwalk.o)
                0x0204a6e8                _fwalk
                0x0204a758                _fwalk_reent
 .text          0x0204a7cc       0x9e c:/nburn/gcc-m68k/bin/../lib/gcc/m68k-elf/4.2.1/../../../../m68k-elf/lib/m5206e\libc.a(lib_a-fwrite.o)
                0x0204a7cc                _fwrite_r
                0x0204a848                fwrite
 *fill*         0x0204a86a        0x2 00
 .text          0x0204a86c       0x20 c:/nburn/gcc-m68k/bin/../lib/gcc/m68k-elf/4.2.1/../../../../m68k-elf/lib/m5206e\libc.a(lib_a-gmtime.o)
                0x0204a86c                gmtime
 .text          0x0204a88c       0x1a c:/nburn/gcc-m68k/bin/../lib/gcc/m68k-elf/4.2.1/../../../../m68k-elf/lib/m5206e\libc.a(lib_a-gmtime_r.o)
                0x0204a88c                gmtime_r
 *fill*         0x0204a8a6        0x2 00
 .text          0x0204a8a8        0x0 c:/nburn/gcc-m68k/bin/../lib/gcc/m68k-elf/4.2.1/../../../../m68k-elf/lib/m5206e\libc.a(lib_a-impure.o)
 .text          0x0204a8a8       0x54 c:/nburn/gcc-m68k/bin/../lib/gcc/m68k-elf/4.2.1/../../../../m68k-elf/lib/m5206e\libc.a(lib_a-iprintf.o)
                0x0204a8a8                _iprintf_r
                0x0204a8d2                iprintf
 .text          0x0204a8fc       0x3a c:/nburn/gcc-m68k/bin/../lib/gcc/m68k-elf/4.2.1/../../../../m68k-elf/lib/m5206e\libc.a(lib_a-isprint.o)
                0x0204a8fc                isgraph
                0x0204a918                isprint
 *fill*         0x0204a936        0x2 00
 .text          0x0204a938       0x1c c:/nburn/gcc-m68k/bin/../lib/gcc/m68k-elf/4.2.1/../../../../m68k-elf/lib/m5206e\libc.a(lib_a-isspace.o)
                0x0204a938                isspace
 .text          0x0204a954       0x32 c:/nburn/gcc-m68k/bin/../lib/gcc/m68k-elf/4.2.1/../../../../m68k-elf/lib/m5206e\libc.a(lib_a-malloc.o)
                0x0204a96e                malloc
                0x0204a954                free
 *fill*         0x0204a986        0x2 00
 .text          0x0204a988      0x78c c:/nburn/gcc-m68k/bin/../lib/gcc/m68k-elf/4.2.1/../../../../m68k-elf/lib/m5206e\libc.a(lib_a-mallocr.o)
                0x0204a988                _malloc_r
 .text          0x0204b114       0xd2 c:/nburn/gcc-m68k/bin/../lib/gcc/m68k-elf/4.2.1/../../../../m68k-elf/lib/m5206e\libc.a(lib_a-memchr.o)
                0x0204b114                memchr
 *fill*         0x0204b1e6        0x2 00
 .text          0x0204b1e8       0x72 c:/nburn/gcc-m68k/bin/../lib/gcc/m68k-elf/4.2.1/../../../../m68k-elf/lib/m5206e\libc.a(lib_a-memcmp.o)
                0x0204b1e8                memcmp
 *fill*         0x0204b25a        0x2 00
 .text          0x0204b25c       0xb6 c:/nburn/gcc-m68k/bin/../lib/gcc/m68k-elf/4.2.1/../../../../m68k-elf/lib/m5206e\libc.a(lib_a-memmove.o)
                0x0204b25c                memmove
 *fill*         0x0204b312        0x2 00
 .text          0x0204b314      0x628 c:/nburn/gcc-m68k/bin/../lib/gcc/m68k-elf/4.2.1/../../../../m68k-elf/lib/m5206e\libc.a(lib_a-mktm_r.o)
                0x0204b314                __tzcalc_limits
                0x0204b514                _mktm_r
 .text          0x0204b93c       0x54 c:/nburn/gcc-m68k/bin/../lib/gcc/m68k-elf/4.2.1/../../../../m68k-elf/lib/m5206e\libc.a(lib_a-printf.o)
                0x0204b93c                printf
                0x0204b966                _printf_r
 .text          0x0204b990      0x16a c:/nburn/gcc-m68k/bin/../lib/gcc/m68k-elf/4.2.1/../../../../m68k-elf/lib/m5206e\libc.a(lib_a-putc.o)
                0x0204ba4a                _putc_r
                0x0204b990                putc
 *fill*         0x0204bafa        0x2 00
 .text          0x0204bafc       0x8a c:/nburn/gcc-m68k/bin/../lib/gcc/m68k-elf/4.2.1/../../../../m68k-elf/lib/m5206e\libc.a(lib_a-puts.o)
                0x0204bafc                _puts_r
                0x0204bb70                puts
 *fill*         0x0204bb86        0x2 00
 .text          0x0204bb88       0x6a c:/nburn/gcc-m68k/bin/../lib/gcc/m68k-elf/4.2.1/../../../../m68k-elf/lib/m5206e\libc.a(lib_a-rand.o)
                0x0204bba0                rand
                0x0204bb88                srand
 *fill*         0x0204bbf2        0x2 00
 .text          0x0204bbf4       0x1c c:/nburn/gcc-m68k/bin/../lib/gcc/m68k-elf/4.2.1/../../../../m68k-elf/lib/m5206e\libc.a(lib_a-realloc.o)
                0x0204bbf4                realloc
 .text          0x0204bc10      0x502 c:/nburn/gcc-m68k/bin/../lib/gcc/m68k-elf/4.2.1/../../../../m68k-elf/lib/m5206e\libc.a(lib_a-reallocr.o)
                0x0204bc10                _realloc_r
 *fill*         0x0204c112        0x2 00
 .text          0x0204c114       0x4e c:/nburn/gcc-m68k/bin/../lib/gcc/m68k-elf/4.2.1/../../../../m68k-elf/lib/m5206e\libc.a(lib_a-rget.o)
                0x0204c14e                __srget
                0x0204c114                __srget_r
 *fill*         0x0204c162        0x2 00
 .text          0x0204c164      0x1ee c:/nburn/gcc-m68k/bin/../lib/gcc/m68k-elf/4.2.1/../../../../m68k-elf/lib/m5206e\libc.a(lib_a-setvbuf.o)
                0x0204c164                setvbuf
 *fill*         0x0204c352        0x2 00
 .text          0x0204c354      0x270 c:/nburn/gcc-m68k/bin/../lib/gcc/m68k-elf/4.2.1/../../../../m68k-elf/lib/m5206e\libc.a(lib_a-signal.o)
                0x0204c548                _signal_r
                0x0204c468                _raise_r
                0x0204c3ce                __sigtramp_r
                0x0204c5ac                signal
                0x0204c3be                _init_signal
                0x0204c354                _init_signal_r
                0x0204c452                __sigtramp
                0x0204c532                raise
 .text          0x0204c5c4       0x42 c:/nburn/gcc-m68k/bin/../lib/gcc/m68k-elf/4.2.1/../../../../m68k-elf/lib/m5206e\libc.a(lib_a-signalr.o)
                0x0204c5d0                _kill_r
                0x0204c5c4                _getpid_r
 *fill*         0x0204c606        0x2 00
 .text          0x0204c608       0xba c:/nburn/gcc-m68k/bin/../lib/gcc/m68k-elf/4.2.1/../../../../m68k-elf/lib/m5206e\libc.a(lib_a-siprintf.o)
                0x0204c666                _siprintf_r
                0x0204c608                siprintf
 *fill*         0x0204c6c2        0x2 00
 .text          0x0204c6c4       0xba c:/nburn/gcc-m68k/bin/../lib/gcc/m68k-elf/4.2.1/../../../../m68k-elf/lib/m5206e\libc.a(lib_a-sprintf.o)
                0x0204c722                _sprintf_r
                0x0204c6c4                sprintf
 *fill*         0x0204c77e        0x2 00
 .text          0x0204c780       0xe0 c:/nburn/gcc-m68k/bin/../lib/gcc/m68k-elf/4.2.1/../../../../m68k-elf/lib/m5206e\libc.a(lib_a-sscanf.o)
                0x0204c7f4                sscanf
                0x0204c78a                _sscanf_r
 .text          0x0204c860      0x162 c:/nburn/gcc-m68k/bin/../lib/gcc/m68k-elf/4.2.1/../../../../m68k-elf/lib/m5206e\libc.a(lib_a-stdio.o)
                0x0204c87e                __sseek
                0x0204c970                __sread
                0x0204c860                __sclose
                0x0204c8e0                __swrite
 *fill*         0x0204c9c2        0x2 00
 .text          0x0204c9c4       0x92 c:/nburn/gcc-m68k/bin/../lib/gcc/m68k-elf/4.2.1/../../../../m68k-elf/lib/m5206e\libc.a(lib_a-strcasecmp.o)
                0x0204c9c4                strcasecmp
 *fill*         0x0204ca56        0x2 00
 .text          0x0204ca58       0x7c c:/nburn/gcc-m68k/bin/../lib/gcc/m68k-elf/4.2.1/../../../../m68k-elf/lib/m5206e\libc.a(lib_a-strcat.o)
                0x0204ca58                strcat
 .text          0x0204cad4       0xcc c:/nburn/gcc-m68k/bin/../lib/gcc/m68k-elf/4.2.1/../../../../m68k-elf/lib/m5206e\libc.a(lib_a-strchr.o)
                0x0204cad4                strchr
 .text          0x0204cba0       0x70 c:/nburn/gcc-m68k/bin/../lib/gcc/m68k-elf/4.2.1/../../../../m68k-elf/lib/m5206e\libc.a(lib_a-strcmp.o)
                0x0204cba0                strcmp
 .text          0x0204cc10       0x22 c:/nburn/gcc-m68k/bin/../lib/gcc/m68k-elf/4.2.1/../../../../m68k-elf/lib/m5206e\libc.a(lib_a-strcpy.o)
                0x0204cc10                strcpy
 *fill*         0x0204cc32        0x2 00
 .text          0x0204cc34       0x1a c:/nburn/gcc-m68k/bin/../lib/gcc/m68k-elf/4.2.1/../../../../m68k-elf/lib/m5206e\libc.a(lib_a-strlen.o)
                0x0204cc34                strlen
 *fill*         0x0204cc4e        0x2 00
 .text          0x0204cc50       0xda c:/nburn/gcc-m68k/bin/../lib/gcc/m68k-elf/4.2.1/../../../../m68k-elf/lib/m5206e\libc.a(lib_a-strncmp.o)
                0x0204cc50                strncmp
 *fill*         0x0204cd2a        0x2 00
 .text          0x0204cd2c       0x90 c:/nburn/gcc-m68k/bin/../lib/gcc/m68k-elf/4.2.1/../../../../m68k-elf/lib/m5206e\libc.a(lib_a-strncpy.o)
                0x0204cd2c                strncpy
 .text          0x0204cdbc       0x58 c:/nburn/gcc-m68k/bin/../lib/gcc/m68k-elf/4.2.1/../../../../m68k-elf/lib/m5206e\libc.a(lib_a-strspn.o)
                0x0204cdbc                strspn
 .text          0x0204ce14       0x46 c:/nburn/gcc-m68k/bin/../lib/gcc/m68k-elf/4.2.1/../../../../m68k-elf/lib/m5206e\libc.a(lib_a-strstr.o)
                0x0204ce14                strstr
 *fill*         0x0204ce5a        0x2 00
 .text          0x0204ce5c     0x174a c:/nburn/gcc-m68k/bin/../lib/gcc/m68k-elf/4.2.1/../../../../m68k-elf/lib/m5206e\libc.a(lib_a-strtod.o)
                0x0204ceae                _strtod_r
                0x0204e58c                strtod
                0x0204e4a6                strtof
 *fill*         0x0204e5a6        0x2 00
 .text          0x0204e5a8       0xc6 c:/nburn/gcc-m68k/bin/../lib/gcc/m68k-elf/4.2.1/../../../../m68k-elf/lib/m5206e\libc.a(lib_a-strtok_r.o)
                0x0204e652                strtok_r
                0x0204e5a8                __strtok_r
 *fill*         0x0204e66e        0x2 00
 .text          0x0204e670      0x18a c:/nburn/gcc-m68k/bin/../lib/gcc/m68k-elf/4.2.1/../../../../m68k-elf/lib/m5206e\libc.a(lib_a-strtol.o)
                0x0204e7dc                strtol
                0x0204e670                _strtol_r
 *fill*         0x0204e7fa        0x2 00
 .text          0x0204e7fc       0x26 c:/nburn/gcc-m68k/bin/../lib/gcc/m68k-elf/4.2.1/../../../../m68k-elf/lib/m5206e\libc.a(lib_a-tolower.o)
                0x0204e7fc                tolower
 *fill*         0x0204e822        0x2 00
 .text          0x0204e824       0x26 c:/nburn/gcc-m68k/bin/../lib/gcc/m68k-elf/4.2.1/../../../../m68k-elf/lib/m5206e\libc.a(lib_a-toupper.o)
                0x0204e824                toupper
 *fill*         0x0204e84a        0x2 00
 .text          0x0204e84c        0x0 c:/nburn/gcc-m68k/bin/../lib/gcc/m68k-elf/4.2.1/../../../../m68k-elf/lib/m5206e\libc.a(lib_a-tzvars.o)
 .text          0x0204e84c     0x1280 c:/nburn/gcc-m68k/bin/../lib/gcc/m68k-elf/4.2.1/../../../../m68k-elf/lib/m5206e\libc.a(lib_a-vfiprintf.o)
                0x0204faae                vfiprintf
                0x0204e890                _vfiprintf_r
 .text          0x0204facc     0x1fac c:/nburn/gcc-m68k/bin/../lib/gcc/m68k-elf/4.2.1/../../../../m68k-elf/lib/m5206e\libc.a(lib_a-vfprintf.o)
                0x0204fb10                _vfprintf_r
                0x02051a5a                vfprintf
 .text          0x02051a78     0x11ec c:/nburn/gcc-m68k/bin/../lib/gcc/m68k-elf/4.2.1/../../../../m68k-elf/lib/m5206e\libc.a(lib_a-vfscanf.o)
                0x02052b90                __svfscanf
                0x02052bae                _vfscanf_r
                0x02052c12                vfscanf
                0x02051a78                __svfscanf_r
 .text          0x02052c64      0x124 c:/nburn/gcc-m68k/bin/../lib/gcc/m68k-elf/4.2.1/../../../../m68k-elf/lib/m5206e\libc.a(lib_a-wbuf.o)
                0x02052c64                __swbuf_r
                0x02052d6e                __swbuf
 .text          0x02052d88       0x7c c:/nburn/gcc-m68k/bin/../lib/gcc/m68k-elf/4.2.1/../../../../m68k-elf/lib/m5206e\libc.a(lib_a-wcrtomb.o)
                0x02052d88                _wcrtomb_r
                0x02052de8                wcrtomb
 .text          0x02052e04      0x130 c:/nburn/gcc-m68k/bin/../lib/gcc/m68k-elf/4.2.1/../../../../m68k-elf/lib/m5206e\libc.a(lib_a-wcsrtombs.o)
                0x02052e04                _wcsrtombs_r
                0x02052f12                wcsrtombs
 .text          0x02052f34      0x452 c:/nburn/gcc-m68k/bin/../lib/gcc/m68k-elf/4.2.1/../../../../m68k-elf/lib/m5206e\libc.a(lib_a-wctomb_r.o)
                0x02052f34                _wctomb_r
 *fill*         0x02053386        0x2 00
 .text          0x02053388       0x3e c:/nburn/gcc-m68k/bin/../lib/gcc/m68k-elf/4.2.1/../../../../m68k-elf/lib/m5206e\libc.a(lib_a-writer.o)
                0x02053388                _write_r
 *fill*         0x020533c6        0x2 00
 .text          0x020533c8      0x130 c:/nburn/gcc-m68k/bin/../lib/gcc/m68k-elf/4.2.1/../../../../m68k-elf/lib/m5206e\libc.a(lib_a-wsetup.o)
                0x020533c8                __swsetup
 .text          0x020534f8       0xe8 c:/nburn/gcc-m68k/bin/../lib/gcc/m68k-elf/4.2.1/../../../../m68k-elf/lib/m5206e\libc.a(lib_a-__atexit.o)
                0x020534f8                __register_exitproc
 .text          0x020535e0       0x32 c:/nburn/gcc-m68k/bin/../lib/gcc/m68k-elf/4.2.1/../../../../m68k-elf/lib/m5206e\libc.a(lib_a-closer.o)
                0x020535e0                _close_r
 *fill*         0x02053612        0x2 00
 .text          0x02053614     0x160a c:/nburn/gcc-m68k/bin/../lib/gcc/m68k-elf/4.2.1/../../../../m68k-elf/lib/m5206e\libc.a(lib_a-dtoa.o)
                0x020537c6                _dtoa_r
 *fill*         0x02054c1e        0x2 00
 .text          0x02054c20       0xfe c:/nburn/gcc-m68k/bin/../lib/gcc/m68k-elf/4.2.1/../../../../m68k-elf/lib/m5206e\libc.a(lib_a-fclose.o)
                0x02054c20                _fclose_r
                0x02054d08                fclose
 *fill*         0x02054d1e        0x2 00
 .text          0x02054d20      0x248 c:/nburn/gcc-m68k/bin/../lib/gcc/m68k-elf/4.2.1/../../../../m68k-elf/lib/m5206e\libc.a(lib_a-fread.o)
                0x02054f46                fread
                0x02054d20                _fread_r
 .text          0x02054f68      0x422 c:/nburn/gcc-m68k/bin/../lib/gcc/m68k-elf/4.2.1/../../../../m68k-elf/lib/m5206e\libc.a(lib_a-freer.o)
                0x02055058                _free_r
                0x02054f68                _malloc_trim_r
 *fill*         0x0205538a        0x2 00
 .text          0x0205538c      0x800 c:/nburn/gcc-m68k/bin/../lib/gcc/m68k-elf/4.2.1/../../../../m68k-elf/lib/m5206e\libc.a(lib_a-gdtoa-gethex.o)
                0x020553be                __hexdig_init
                0x02055484                __gethex
 .text          0x02055b8c      0x1d2 c:/nburn/gcc-m68k/bin/../lib/gcc/m68k-elf/4.2.1/../../../../m68k-elf/lib/m5206e\libc.a(lib_a-gdtoa-hexnan.o)
                0x02055bca                __hexnan
 *fill*         0x02055d5e        0x2 00
 .text          0x02055d60        0xe c:/nburn/gcc-m68k/bin/../lib/gcc/m68k-elf/4.2.1/../../../../m68k-elf/lib/m5206e\libc.a(lib_a-gettzinfo.o)
                0x02055d60                __gettzinfo
 *fill*         0x02055d6e        0x2 00
 .text          0x02055d70       0x2a c:/nburn/gcc-m68k/bin/../lib/gcc/m68k-elf/4.2.1/../../../../m68k-elf/lib/m5206e\libc.a(lib_a-iswspace.o)
                0x02055d70                iswspace
 *fill*         0x02055d9a        0x2 00
 .text          0x02055d9c       0xa6 c:/nburn/gcc-m68k/bin/../lib/gcc/m68k-elf/4.2.1/../../../../m68k-elf/lib/m5206e\libc.a(lib_a-locale.o)
                0x02055dca                _setlocale_r
                0x02055d9c                __locale_charset
                0x02055daa                _localeconv_r
                0x02055e2a                setlocale
                0x02055db8                localeconv
 *fill*         0x02055e42        0x2 00
 .text          0x02055e44       0x3e c:/nburn/gcc-m68k/bin/../lib/gcc/m68k-elf/4.2.1/../../../../m68k-elf/lib/m5206e\libc.a(lib_a-lseekr.o)
                0x02055e44                _lseek_r
 *fill*         0x02055e82        0x2 00
 .text          0x02055e84      0x178 c:/nburn/gcc-m68k/bin/../lib/gcc/m68k-elf/4.2.1/../../../../m68k-elf/lib/m5206e\libc.a(lib_a-makebuf.o)
                0x02055e84                __smakebuf
 .text          0x02055ffc       0x8c c:/nburn/gcc-m68k/bin/../lib/gcc/m68k-elf/4.2.1/../../../../m68k-elf/lib/m5206e\libc.a(lib_a-mbrtowc.o)
                0x02056066                mbrtowc
                0x02055ffc                _mbrtowc_r
 .text          0x02056088       0x56 c:/nburn/gcc-m68k/bin/../lib/gcc/m68k-elf/4.2.1/../../../../m68k-elf/lib/m5206e\libc.a(lib_a-mbtowc_r.o)
                0x02056088                _mbtowc_r
 *fill*         0x020560de        0x2 00
 .text          0x020560e0      0xc78 c:/nburn/gcc-m68k/bin/../lib/gcc/m68k-elf/4.2.1/../../../../m68k-elf/lib/m5206e\libc.a(lib_a-mprec.o)
                0x02056434                _mprec_log10
                0x020564ea                __any_on
                0x02056590                _Balloc
                0x020563a2                __ratio
                0x02056ab8                __i2b
                0x020562b2                __b2d
                0x02056c80                __s2b
                0x020561d0                __mcmp
                0x020560e0                __hi0bits
                0x02056b9e                __pow5mult
                0x0205689c                __lshift
                0x0205694a                __multiply
                0x02056646                __d2b
                0x020564a6                __copybits
                0x02056230                __ulp
                0x0205675c                __mdiff
                0x02056144                __lo0bits
                0x02056ada                __multadd
                0x02056556                _Bfree
 .text          0x02056d58       0x3e c:/nburn/gcc-m68k/bin/../lib/gcc/m68k-elf/4.2.1/../../../../m68k-elf/lib/m5206e\libc.a(lib_a-readr.o)
                0x02056d58                _read_r
 *fill*         0x02056d96        0x2 00
 .text          0x02056d98      0x21c c:/nburn/gcc-m68k/bin/../lib/gcc/m68k-elf/4.2.1/../../../../m68k-elf/lib/m5206e\libc.a(lib_a-refill.o)
                0x02056dbc                __srefill_r
 .text          0x02056fb4       0xbc c:/nburn/gcc-m68k/bin/../lib/gcc/m68k-elf/4.2.1/../../../../m68k-elf/lib/m5206e\libc.a(lib_a-sccl.o)
                0x02056fb4                __sccl
 .text          0x02057070        0xe c:/nburn/gcc-m68k/bin/../lib/gcc/m68k-elf/4.2.1/../../../../m68k-elf/lib/m5206e\libc.a(lib_a-sf_nan.o)
                0x02057070                nanf
 *fill*         0x0205707e        0x2 00
 .text          0x02057080       0x42 c:/nburn/gcc-m68k/bin/../lib/gcc/m68k-elf/4.2.1/../../../../m68k-elf/lib/m5206e\libc.a(lib_a-s_isinfd.o)
                0x02057080                __isinfd
 *fill*         0x020570c2        0x2 00
 .text          0x020570c4       0x34 c:/nburn/gcc-m68k/bin/../lib/gcc/m68k-elf/4.2.1/../../../../m68k-elf/lib/m5206e\libc.a(lib_a-s_isnand.o)
                0x020570c4                __isnand
 .text          0x020570f8      0x254 c:/nburn/gcc-m68k/bin/../lib/gcc/m68k-elf/4.2.1/../../../../m68k-elf/lib/m5206e\libc.a(lib_a-strtoll_r.o)
                0x020570f8                _strtoll_r
 .text          0x0205734c      0x2ba c:/nburn/gcc-m68k/bin/../lib/gcc/m68k-elf/4.2.1/../../../../m68k-elf/lib/m5206e\libc.a(lib_a-strtoull_r.o)
                0x0205734c                _strtoull_r
 *fill*         0x02057606        0x2 00
 .text          0x02057608      0x19e c:/nburn/gcc-m68k/bin/../lib/gcc/m68k-elf/4.2.1/../../../../m68k-elf/lib/m5206e\libc.a(lib_a-strtoul.o)
                0x02057788                strtoul
                0x02057608                _strtoul_r
 *fill*         0x020577a6        0x2 00
 .text          0x020577a8      0x230 c:/nburn/gcc-m68k/bin/../lib/gcc/m68k-elf/4.2.1/../../../../m68k-elf/lib/m5206e\libc.a(lib_a-ungetc.o)
                0x020579be                ungetc
                0x020577a8                __submore
                0x02057866                _ungetc_r
 .text          0x020579d8       0x92 c:/nburn/gcc-m68k/bin/../lib/gcc/m68k-elf/4.2.1/../../../../m68k-elf/lib/m5206e\libc.a(lib_a-callocr.o)
                0x020579d8                _calloc_r
 *fill*         0x02057a6a        0x2 00
 .text          0x02057a6c       0x36 c:/nburn/gcc-m68k/bin/../lib/gcc/m68k-elf/4.2.1/../../../../m68k-elf/lib/m5206e\libc.a(lib_a-fstatr.o)
                0x02057a6c                _fstat_r
 *fill*         0x02057aa2        0x2 00
 .text          0x02057aa4       0x22 c:/nburn/gcc-m68k/bin/../lib/gcc/m68k-elf/4.2.1/m5206e\libgcc.a(_eqdf2.o)
                0x02057aa4                __eqdf2
 *fill*         0x02057ac6        0x2 00
 .text          0x02057ac8       0x1a c:/nburn/gcc-m68k/bin/../lib/gcc/m68k-elf/4.2.1/m5206e\libgcc.a(_nesf2.o)
                0x02057ac8                __nesf2
 *fill*         0x02057ae2        0x2 00
 .text          0x02057ae4       0x72 c:/nburn/gcc-m68k/bin/../lib/gcc/m68k-elf/4.2.1/m5206e\libgcc.a(_muldi3.o)
                0x02057ae4                __muldi3
 *fill*         0x02057b56        0x2 00
 .text          0x02057b58       0x32 c:/nburn/gcc-m68k/bin/../lib/gcc/m68k-elf/4.2.1/m5206e/crtend.o
                0x02057b90                . = ALIGN (0x10)
 *fill*         0x02057b8a        0x6 00
 *(.text.*)
 .text._ZN7Service4stopEv
                0x02057b90        0x8 services.o
                0x02057b90                Service::stop()
 .text._ZNSt8_Rb_treeImSt4pairIKmtESt10_Select1stIS2_ESt4lessImESaIS2_EE4findERS1_
                0x02057b98       0x52 services.o
                0x02057b98                std::_Rb_tree<unsigned long, std::pair<unsigned long const, unsigned short>, std::_Select1st<std::pair<unsigned long const, unsigned short> >, std::less<unsigned long>, std::allocator<std::pair<unsigned long const, unsigned short> > >::find(unsigned long const&)
 *fill*         0x02057bea        0x2 00
 .text._ZNSt8_Rb_treeImSt4pairIKmtESt10_Select1stIS2_ESt4lessImESaIS2_EE11lower_boundERS1_
                0x02057bec       0x38 services.o
                0x02057bec                std::_Rb_tree<unsigned long, std::pair<unsigned long const, unsigned short>, std::_Select1st<std::pair<unsigned long const, unsigned short> >, std::less<unsigned long>, std::allocator<std::pair<unsigned long const, unsigned short> > >::lower_bound(unsigned long const&)
 .text._ZN7Service6setTagEv
                0x02057c24       0x2c services.o
                0x02057c24                Service::setTag()
 .text._ZNSt11_Deque_baseIPcSaIS0_EE16_M_destroy_nodesEPPS0_S4_
                0x02057c50       0x30 services.o
                0x02057c50                std::_Deque_base<char*, std::allocator<char*> >::_M_destroy_nodes(char***, char***)
 .text._ZNSt11_Deque_baseIPcSaIS0_EED2Ev
                0x02057c80       0x40 services.o
                0x02057c80                std::_Deque_base<char*, std::allocator<char*> >::~_Deque_base()
 .text._ZNSt8_Rb_treeImSt4pairIKmtESt10_Select1stIS2_ESt4lessImESaIS2_EE8_M_eraseEPSt13_Rb_tree_nodeIS2_E
                0x02057cc0       0x46 services.o
                0x02057cc0                std::_Rb_tree<unsigned long, std::pair<unsigned long const, unsigned short>, std::_Select1st<std::pair<unsigned long const, unsigned short> >, std::less<unsigned long>, std::allocator<std::pair<unsigned long const, unsigned short> > >::_M_erase(std::_Rb_tree_node<std::pair<unsigned long const, unsigned short> >*)
 *fill*         0x02057d06        0x2 00
 .text._ZN9IpServiceD0Ev
                0x02057d08       0x16 services.o
                0x02057d08                IpService::~IpService()
 *fill*         0x02057d1e        0x2 00
 .text._ZN6ClientD0Ev
                0x02057d20       0x16 services.o
                0x02057d20                Client::~Client()
 *fill*         0x02057d36        0x2 00
 .text._ZN6ClientD1Ev
                0x02057d38       0x12 services.o
                0x02057d38                Client::~Client()
 *fill*         0x02057d4a        0x2 00
 .text._ZN9TcpClientD1Ev
                0x02057d4c       0x12 services.o
                0x02057d4c                TcpClient::~TcpClient()
 *fill*         0x02057d5e        0x2 00
 .text._ZN9IpService6setTagEv
                0x02057d60       0x58 services.o
                0x02057d60                IpService::setTag()
 .text._ZN7Service13startSameTaskEv
                0x02057db8       0x78 services.o
                0x02057db8                Service::startSameTask()
 .text._ZN7ServiceD0Ev
                0x02057e30       0x16 services.o
                0x02057e30                Service::~Service()
 *fill*         0x02057e46        0x2 00
 .text._ZN7ServiceD1Ev
                0x02057e48       0x12 services.o
                0x02057e48                Service::~Service()
 *fill*         0x02057e5a        0x2 00
 .text._ZNSt8_Rb_treeImSt4pairIKmtESt10_Select1stIS2_ESt4lessImESaIS2_EE7_M_copyEPKSt13_Rb_tree_nodeIS2_EPSA_
                0x02057e5c       0xd4 services.o
                0x02057e5c                std::_Rb_tree<unsigned long, std::pair<unsigned long const, unsigned short>, std::_Select1st<std::pair<unsigned long const, unsigned short> >, std::less<unsigned long>, std::allocator<std::pair<unsigned long const, unsigned short> > >::_M_copy(std::_Rb_tree_node<std::pair<unsigned long const, unsigned short> > const*, std::_Rb_tree_node<std::pair<unsigned long const, unsigned short> >*)
 .text._ZNSt8_Rb_treeImSt4pairIKmtESt10_Select1stIS2_ESt4lessImESaIS2_EEaSERKS8_
                0x02057f30       0x94 services.o
                0x02057f30                std::_Rb_tree<unsigned long, std::pair<unsigned long const, unsigned short>, std::_Select1st<std::pair<unsigned long const, unsigned short> >, std::less<unsigned long>, std::allocator<std::pair<unsigned long const, unsigned short> > >::operator=(std::_Rb_tree<unsigned long, std::pair<unsigned long const, unsigned short>, std::_Select1st<std::pair<unsigned long const, unsigned short> >, std::less<unsigned long>, std::allocator<std::pair<unsigned long const, unsigned short> > > const&)
 .text._ZNSt8_Rb_treeImSt4pairIKmtESt10_Select1stIS2_ESt4lessImESaIS2_EE9_M_insertEPSt18_Rb_tree_node_baseSA_RKS2_
                0x02057fc4       0x74 services.o
                0x02057fc4                std::_Rb_tree<unsigned long, std::pair<unsigned long const, unsigned short>, std::_Select1st<std::pair<unsigned long const, unsigned short> >, std::less<unsigned long>, std::allocator<std::pair<unsigned long const, unsigned short> > >::_M_insert(std::_Rb_tree_node_base*, std::_Rb_tree_node_base*, std::pair<unsigned long const, unsigned short> const&)
 .text._ZNSt8_Rb_treeImSt4pairIKmtESt10_Select1stIS2_ESt4lessImESaIS2_EE16_M_insert_uniqueERKS2_
                0x02058038       0xbc services.o
                0x02058038                std::_Rb_tree<unsigned long, std::pair<unsigned long const, unsigned short>, std::_Select1st<std::pair<unsigned long const, unsigned short> >, std::less<unsigned long>, std::allocator<std::pair<unsigned long const, unsigned short> > >::_M_insert_unique(std::pair<unsigned long const, unsigned short> const&)
 .text._ZNSt8_Rb_treeImSt4pairIKmtESt10_Select1stIS2_ESt4lessImESaIS2_EE16_M_insert_uniqueESt17_Rb_tree_iteratorIS2_ERKS2_
                0x020580f4      0x160 services.o
                0x020580f4                std::_Rb_tree<unsigned long, std::pair<unsigned long const, unsigned short>, std::_Select1st<std::pair<unsigned long const, unsigned short> >, std::less<unsigned long>, std::allocator<std::pair<unsigned long const, unsigned short> > >::_M_insert_unique(std::_Rb_tree_iterator<std::pair<unsigned long const, unsigned short> >, std::pair<unsigned long const, unsigned short> const&)
 .text._ZN9IpServiceD1Ev
                0x02058254       0x12 services.o
                0x02058254                IpService::~IpService()
 *fill*         0x02058266        0x2 00
 .text._ZN8IpClientD0Ev
                0x02058268       0x16 services.o
                0x02058268                IpClient::~IpClient()
 *fill*         0x0205827e        0x2 00
 .text._ZN8IpClientD1Ev
                0x02058280       0x12 services.o
                0x02058280                IpClient::~IpClient()
 *fill*         0x02058292        0x2 00
 .text._ZNSt5dequeIPcSaIS0_EE17_M_reallocate_mapEmb
                0x02058294      0x21e services.o
                0x02058294                std::deque<char*, std::allocator<char*> >::_M_reallocate_map(unsigned long, bool)
 *fill*         0x020584b2        0x2 00
 .text._ZNSt5dequeIPcSaIS0_EE16_M_push_back_auxERKS0_
                0x020584b4       0x84 services.o
                0x020584b4                std::deque<char*, std::allocator<char*> >::_M_push_back_aux(char* const&)
 .text._ZNSt5dequeIPcSaIS0_EE15_M_pop_back_auxEv
                0x02058538       0x42 services.o
                0x02058538                std::deque<char*, std::allocator<char*> >::_M_pop_back_aux()
 *fill*         0x0205857a        0x2 00
 .text._ZN9TcpClientD0Ev
                0x0205857c       0x16 services.o
                0x0205857c                TcpClient::~TcpClient()
 *fill*         0x02058592        0x2 00
 .text._ZNSt8_Rb_treeISsSt4pairIKSsM10CorrelatorFvPcNS2_13argument_typeEEESt10_Select1stIS7_ESt4lessISsESaIS7_EE4findERS1_
                0x02058594       0xd2 services.o
                0x02058594                std::_Rb_tree<std::string, std::pair<std::string const, void (Correlator::*)(char*, Correlator::argument_type)>, std::_Select1st<std::pair<std::string const, void (Correlator::*)(char*, Correlator::argument_type)> >, std::less<std::string>, std::allocator<std::pair<std::string const, void (Correlator::*)(char*, Correlator::argument_type)> > >::find(std::string const&)
 *fill*         0x02058666        0x2 00
 .text._ZN11DataServiceD1Ev
                0x02058668       0x12 services.o
                0x02058668                DataService::~DataService()
 *fill*         0x0205867a        0x2 00
 .text._ZN10UdpServiceD0Ev
                0x0205867c       0x42 services.o
                0x0205867c                UdpService::~UdpService()
 *fill*         0x020586be        0x2 00
 .text._ZN10UdpServiceD1Ev
                0x020586c0       0x3a services.o
                0x020586c0                UdpService::~UdpService()
 *fill*         0x020586fa        0x2 00
 .text._ZN14MessageServiceD1Ev
                0x020586fc       0x54 services.o
                0x020586fc                MessageService::~MessageService()
 .text._ZN10TcpServiceD0Ev
                0x02058750       0x16 services.o
                0x02058750                TcpService::~TcpService()
 *fill*         0x02058766        0x2 00
 .text._ZN10TcpServiceD1Ev
                0x02058768       0x12 services.o
                0x02058768                TcpService::~TcpService()
 *fill*         0x0205877a        0x2 00
 .text._ZN14MonitorServiceD1Ev
                0x0205877c       0x12 services.o
                0x0205877c                MonitorService::~MonitorService()
 *fill*         0x0205878e        0x2 00
 .text._ZN14MonitorServiceD0Ev
                0x02058790       0x16 services.o
                0x02058790                MonitorService::~MonitorService()
 *fill*         0x020587a6        0x2 00
 .text._ZN11DataServiceD0Ev
                0x020587a8       0x16 services.o
                0x020587a8                DataService::~DataService()
 *fill*         0x020587be        0x2 00
 .text._ZN14MessageServiceD0Ev
                0x020587c0       0x5c services.o
                0x020587c0                MessageService::~MessageService()
 .text._ZN14ControlServiceD1Ev
                0x0205881c       0x12 services.o
                0x0205881c                ControlService::~ControlService()
 *fill*         0x0205882e        0x2 00
 .text._ZN16SimpleTcpServiceD0Ev
                0x02058830       0x16 services.o
                0x02058830                SimpleTcpService::~SimpleTcpService()
 *fill*         0x02058846        0x2 00
 .text._ZN14ControlServiceD0Ev
                0x02058848       0x16 services.o
                0x02058848                ControlService::~ControlService()
 *fill*         0x0205885e        0x2 00
 .text._ZN16SimpleTcpServiceD1Ev
                0x02058860       0x12 services.o
                0x02058860                SimpleTcpService::~SimpleTcpService()
 *fill*         0x02058872        0x2 00
 .text._ZSt9transformIN9__gnu_cxx17__normal_iteratorIPlSt6vectorIlSaIlEEEEPKlS6_St4plusIlEET1_T_SC_T0_SB_T2_
                0x02058874       0x2e observations.o
                0x02058874                __gnu_cxx::__normal_iterator<long*, std::vector<long, std::allocator<long> > > std::transform<__gnu_cxx::__normal_iterator<long*, std::vector<long, std::allocator<long> > >, long const*, __gnu_cxx::__normal_iterator<long*, std::vector<long, std::allocator<long> > >, std::plus<long> >(__gnu_cxx::__normal_iterator<long*, std::vector<long, std::allocator<long> > >, __gnu_cxx::__normal_iterator<long*, std::vector<long, std::allocator<long> > >, long const*, __gnu_cxx::__normal_iterator<long*, std::vector<long, std::allocator<long> > >, std::plus<long>)
 *fill*         0x020588a2        0x2 00
 .text._ZN11ObservationD0Ev
                0x020588a4       0x16 observations.o
                0x020588a4                Observation::~Observation()
 *fill*         0x020588ba        0x2 00
 .text._ZN11ObservationD1Ev
                0x020588bc       0x12 observations.o
                0x020588bc                Observation::~Observation()
 *fill*         0x020588ce        0x2 00
 .text._ZN16BasicObservationD0Ev
                0x020588d0       0x58 observations.o
                0x020588d0                BasicObservation::~BasicObservation()
 .text._ZN16ScopeObservationD0Ev
                0x02058928       0x16 observations.o
                0x02058928                ScopeObservation::~ScopeObservation()
 *fill*         0x0205893e        0x2 00
 .text._ZN16ScopeObservationD1Ev
                0x02058940       0x12 observations.o
                0x02058940                ScopeObservation::~ScopeObservation()
 *fill*         0x02058952        0x2 00
 .text._ZN16StatsObservationD0Ev
                0x02058954       0xb8 observations.o
                0x02058954                StatsObservation::~StatsObservation()
 .text._ZN16BasicObservationD1Ev
                0x02058a0c       0x50 observations.o
                0x02058a0c                BasicObservation::~BasicObservation()
 .text._ZN16StatsObservationD1Ev
                0x02058a5c       0xb0 observations.o
                0x02058a5c                StatsObservation::~StatsObservation()
 .text._ZSt4fillIN9__gnu_cxx17__normal_iteratorIPlSt6vectorIlSaIlEEEElEvT_S7_RKT0_
                0x02058b0c       0x22 obs.o
                0x02058b0c                void std::fill<__gnu_cxx::__normal_iterator<long*, std::vector<long, std::allocator<long> > >, long>(__gnu_cxx::__normal_iterator<long*, std::vector<long, std::allocator<long> > >, __gnu_cxx::__normal_iterator<long*, std::vector<long, std::allocator<long> > >, long const&)
 *fill*         0x02058b2e        0x2 00
 .text._ZSt6fill_nIPlmlET_S1_T0_RKT1_
                0x02058b30       0x2c obs.o
                0x02058b30                long* std::fill_n<long*, unsigned long, long>(long*, unsigned long, long const&)
 .text._ZSt4fillIPllEvT_S1_RKT0_
                0x02058b5c       0x20 obs.o
                0x02058b5c                void std::fill<long*, long>(long*, long*, long const&)
 .text._ZSt4fillIPjjEvT_S1_RKT0_
                0x02058b7c       0x20 obs.o
                0x02058b7c                void std::fill<unsigned int*, unsigned int>(unsigned int*, unsigned int*, unsigned int const&)
 .text._ZSt4fillIPmmEvT_S1_RKT0_
                0x02058b9c       0x20 obs.o
                0x02058b9c                void std::fill<unsigned long*, unsigned long>(unsigned long*, unsigned long*, unsigned long const&)
 .text._ZSt6fill_nIPjmjET_S1_T0_RKT1_
                0x02058bbc       0x2c obs.o
                0x02058bbc                unsigned int* std::fill_n<unsigned int*, unsigned long, unsigned int>(unsigned int*, unsigned long, unsigned int const&)
 .text._ZSt6fill_nIPmmmET_S1_T0_RKT1_
                0x02058be8       0x2c obs.o
                0x02058be8                unsigned long* std::fill_n<unsigned long*, unsigned long, unsigned long>(unsigned long*, unsigned long, unsigned long const&)
 .text._ZNSt6vectorImSaImEE7reserveEm
                0x02058c14       0x8c obs.o
                0x02058c14                std::vector<unsigned long, std::allocator<unsigned long> >::reserve(unsigned long)
 .text._ZNSt6vectorIjSaIjEE7reserveEm
                0x02058ca0       0x8c obs.o
                0x02058ca0                std::vector<unsigned int, std::allocator<unsigned int> >::reserve(unsigned long)
 .text._ZNSt6vectorImSaImEE14_M_fill_insertEN9__gnu_cxx17__normal_iteratorIPmS1_EEmRKm
                0x02058d2c      0x1c4 obs.o
                0x02058d2c                std::vector<unsigned long, std::allocator<unsigned long> >::_M_fill_insert(__gnu_cxx::__normal_iterator<unsigned long*, std::vector<unsigned long, std::allocator<unsigned long> > >, unsigned long, unsigned long const&)
 .text._ZNSt6vectorIlSaIlEE7reserveEm
                0x02058ef0       0x8c obs.o
                0x02058ef0                std::vector<long, std::allocator<long> >::reserve(unsigned long)
 .text._ZNSt6vectorIjSaIjEE14_M_fill_insertEN9__gnu_cxx17__normal_iteratorIPjS1_EEmRKj
                0x02058f7c      0x1b2 obs.o
                0x02058f7c                std::vector<unsigned int, std::allocator<unsigned int> >::_M_fill_insert(__gnu_cxx::__normal_iterator<unsigned int*, std::vector<unsigned int, std::allocator<unsigned int> > >, unsigned long, unsigned int const&)
 *fill*         0x0205912e        0x2 00
 .text._ZNSt6vectorIlSaIlEE14_M_fill_insertEN9__gnu_cxx17__normal_iteratorIPlS1_EEmRKl
                0x02059130      0x1c4 obs.o
                0x02059130                std::vector<long, std::allocator<long> >::_M_fill_insert(__gnu_cxx::__normal_iterator<long*, std::vector<long, std::allocator<long> > >, unsigned long, long const&)
 .text._ZNSt6vectorIlSaIlEE14_M_fill_assignEmRKl
                0x020592f4      0x120 obs.o
                0x020592f4                std::vector<long, std::allocator<long> >::_M_fill_assign(unsigned long, long const&)
 .text._ZNSt11_Deque_baseIPcSaIS0_EE15_M_create_nodesEPPS0_S4_
                0x02059414       0x34 main.o
                0x02059414                std::_Deque_base<char*, std::allocator<char*> >::_M_create_nodes(char***, char***)
 .text._ZNSt11_Deque_baseIPcSaIS0_EE17_M_initialize_mapEm
                0x02059448       0xc6 main.o
                0x02059448                std::_Deque_base<char*, std::allocator<char*> >::_M_initialize_map(unsigned long)
 *fill*         0x0205950e        0x2 00
 .text._ZNSt8_Rb_treeISsSt4pairIKSsSsESt10_Select1stIS2_ESt4lessISsESaIS2_EE7_M_copyEPKSt13_Rb_tree_nodeIS2_EPSA_
                0x02059510      0x100 main.o
                0x02059510                std::_Rb_tree<std::string, std::pair<std::string const, std::string>, std::_Select1st<std::pair<std::string const, std::string> >, std::less<std::string>, std::allocator<std::pair<std::string const, std::string> > >::_M_copy(std::_Rb_tree_node<std::pair<std::string const, std::string> > const*, std::_Rb_tree_node<std::pair<std::string const, std::string> >*)
 .text._ZSt26__uninitialized_fill_n_auxIP8BandDatamS0_EvT_T0_RKT1_St12__false_type
                0x02059610      0x27a main.o
                0x02059610                void std::__uninitialized_fill_n_aux<BandData*, unsigned long, BandData>(BandData*, unsigned long, BandData const&, std::__false_type)
 *fill*         0x0205988a        0x2 00
 .text._ZNSt8_Rb_treeISsSt4pairIKSsM10CorrelatorFvPcNS2_13argument_typeEEESt10_Select1stIS7_ESt4lessISsESaIS7_EE9_M_insertEPSt18_Rb_tree_node_baseSF_RKS7_
                0x0205988c       0xc2 main.o
                0x0205988c                std::_Rb_tree<std::string, std::pair<std::string const, void (Correlator::*)(char*, Correlator::argument_type)>, std::_Select1st<std::pair<std::string const, void (Correlator::*)(char*, Correlator::argument_type)> >, std::less<std::string>, std::allocator<std::pair<std::string const, void (Correlator::*)(char*, Correlator::argument_type)> > >::_M_insert(std::_Rb_tree_node_base*, std::_Rb_tree_node_base*, std::pair<std::string const, void (Correlator::*)(char*, Correlator::argument_type)> const&)
 *fill*         0x0205994e        0x2 00
 .text._ZNSt8_Rb_treeISsSt4pairIKSsM10CorrelatorFvPcNS2_13argument_typeEEESt10_Select1stIS7_ESt4lessISsESaIS7_EE16_M_insert_uniqueERKS7_
                0x02059950      0x15a main.o
                0x02059950                std::_Rb_tree<std::string, std::pair<std::string const, void (Correlator::*)(char*, Correlator::argument_type)>, std::_Select1st<std::pair<std::string const, void (Correlator::*)(char*, Correlator::argument_type)> >, std::less<std::string>, std::allocator<std::pair<std::string const, void (Correlator::*)(char*, Correlator::argument_type)> > >::_M_insert_unique(std::pair<std::string const, void (Correlator::*)(char*, Correlator::argument_type)> const&)
 *fill*         0x02059aaa        0x2 00
 .text._ZNSt8_Rb_treeISsSt4pairIKSsM10CorrelatorFvPcNS2_13argument_typeEEESt10_Select1stIS7_ESt4lessISsESaIS7_EE11lower_boundERS1_
                0x02059aac       0x82 main.o
                0x02059aac                std::_Rb_tree<std::string, std::pair<std::string const, void (Correlator::*)(char*, Correlator::argument_type)>, std::_Select1st<std::pair<std::string const, void (Correlator::*)(char*, Correlator::argument_type)> >, std::less<std::string>, std::allocator<std::pair<std::string const, void (Correlator::*)(char*, Correlator::argument_type)> > >::lower_bound(std::string const&)
 *fill*         0x02059b2e        0x2 00
 .text._ZNSt8_Rb_treeISsSt4pairIKSsM10CorrelatorFvPcNS2_13argument_typeEEESt10_Select1stIS7_ESt4lessISsESaIS7_EE16_M_insert_uniqueESt17_Rb_tree_iteratorIS7_ERKS7_
                0x02059b30      0x2a0 main.o
                0x02059b30                std::_Rb_tree<std::string, std::pair<std::string const, void (Correlator::*)(char*, Correlator::argument_type)>, std::_Select1st<std::pair<std::string const, void (Correlator::*)(char*, Correlator::argument_type)> >, std::less<std::string>, std::allocator<std::pair<std::string const, void (Correlator::*)(char*, Correlator::argument_type)> > >::_M_insert_unique(std::_Rb_tree_iterator<std::pair<std::string const, void (Correlator::*)(char*, Correlator::argument_type)> >, std::pair<std::string const, void (Correlator::*)(char*, Correlator::argument_type)> const&)
 .text._ZNSt8_Rb_treeISsSt4pairIKSsM10CorrelatorFvPcNS2_13argument_typeEEESt10_Select1stIS7_ESt4lessISsESaIS7_EE8_M_eraseEPSt13_Rb_tree_nodeIS7_E
                0x02059dd0       0x86 main.o
                0x02059dd0                std::_Rb_tree<std::string, std::pair<std::string const, void (Correlator::*)(char*, Correlator::argument_type)>, std::_Select1st<std::pair<std::string const, void (Correlator::*)(char*, Correlator::argument_type)> >, std::less<std::string>, std::allocator<std::pair<std::string const, void (Correlator::*)(char*, Correlator::argument_type)> > >::_M_erase(std::_Rb_tree_node<std::pair<std::string const, void (Correlator::*)(char*, Correlator::argument_type)> >*)
 *fill*         0x02059e56        0x2 00
 .text._ZN18CommandInterpreterI10CorrelatorNS0_12command_typeEPcNS0_13argument_typeESsED1Ev
                0x02059e58       0x1c main.o
                0x02059e58                CommandInterpreter<Correlator, Correlator::command_type, char*, Correlator::argument_type, std::string>::~CommandInterpreter()
 .text._ZNSt3mapISsM10CorrelatorFvPcNS0_13argument_typeEESt4lessISsESaISt4pairIKSsS4_EEEixERS8_
                0x02059e74       0xf0 main.o
                0x02059e74                std::map<std::string, void (Correlator::*)(char*, Correlator::argument_type), std::less<std::string>, std::allocator<std::pair<std::string const, void (Correlator::*)(char*, Correlator::argument_type)> > >::operator[](std::string const&)
 .text._ZNSt8_Rb_treeISsSt4pairIKSsSsESt10_Select1stIS2_ESt4lessISsESaIS2_EE8_M_eraseEPSt13_Rb_tree_nodeIS2_E
                0x02059f64       0xc6 main.o
                0x02059f64                std::_Rb_tree<std::string, std::pair<std::string const, std::string>, std::_Select1st<std::pair<std::string const, std::string> >, std::less<std::string>, std::allocator<std::pair<std::string const, std::string> > >::_M_erase(std::_Rb_tree_node<std::pair<std::string const, std::string> >*)
 *fill*         0x0205a02a        0x2 00
 .text._ZN10CorrelatorD1Ev
                0x0205a02c      0x1ce main.o
                0x0205a02c                Correlator::~Correlator()
 *fill*         0x0205a1fa        0x2 00
 .text._ZNKSt8_Rb_treeISsSt4pairIKSsSsESt10_Select1stIS2_ESt4lessISsESaIS2_EE4findERS1_
                0x0205a1fc       0xd2 data.o
                0x0205a1fc                std::_Rb_tree<std::string, std::pair<std::string const, std::string>, std::_Select1st<std::pair<std::string const, std::string> >, std::less<std::string>, std::allocator<std::pair<std::string const, std::string> > >::find(std::string const&) const
 *fill*         0x0205a2ce        0x2 00
 .text._ZNSt8_Rb_treeISsSt4pairIKSsSsESt10_Select1stIS2_ESt4lessISsESaIS2_EE11lower_boundERS1_
                0x0205a2d0       0x82 control.o
                0x0205a2d0                std::_Rb_tree<std::string, std::pair<std::string const, std::string>, std::_Select1st<std::pair<std::string const, std::string> >, std::less<std::string>, std::allocator<std::pair<std::string const, std::string> > >::lower_bound(std::string const&)
 *fill*         0x0205a352        0x2 00
 .text._ZNSt8_Rb_treeISsSt4pairIKSsSsESt10_Select1stIS2_ESt4lessISsESaIS2_EE9_M_insertEPSt18_Rb_tree_node_baseSA_RKS2_
                0x0205a354       0xc8 control.o
                0x0205a354                std::_Rb_tree<std::string, std::pair<std::string const, std::string>, std::_Select1st<std::pair<std::string const, std::string> >, std::less<std::string>, std::allocator<std::pair<std::string const, std::string> > >::_M_insert(std::_Rb_tree_node_base*, std::_Rb_tree_node_base*, std::pair<std::string const, std::string> const&)
 .text._ZNSt8_Rb_treeISsSt4pairIKSsSsESt10_Select1stIS2_ESt4lessISsESaIS2_EE16_M_insert_uniqueERKS2_
                0x0205a41c      0x15a control.o
                0x0205a41c                std::_Rb_tree<std::string, std::pair<std::string const, std::string>, std::_Select1st<std::pair<std::string const, std::string> >, std::less<std::string>, std::allocator<std::pair<std::string const, std::string> > >::_M_insert_unique(std::pair<std::string const, std::string> const&)
 *fill*         0x0205a576        0x2 00
 .text._ZNSt8_Rb_treeISsSt4pairIKSsSsESt10_Select1stIS2_ESt4lessISsESaIS2_EE16_M_insert_uniqueESt17_Rb_tree_iteratorIS2_ERKS2_
                0x0205a578      0x2a0 control.o
                0x0205a578                std::_Rb_tree<std::string, std::pair<std::string const, std::string>, std::_Select1st<std::pair<std::string const, std::string> >, std::less<std::string>, std::allocator<std::pair<std::string const, std::string> > >::_M_insert_unique(std::_Rb_tree_iterator<std::pair<std::string const, std::string> >, std::pair<std::string const, std::string> const&)
 .text._ZNKSt8_Rb_treeISsSt4pairIKSsM10CorrelatorFvPcNS2_13argument_typeEEESt10_Select1stIS7_ESt4lessISsESaIS7_EE4findERS1_
                0x0205a818       0xd2 control.o
                0x0205a818                std::_Rb_tree<std::string, std::pair<std::string const, void (Correlator::*)(char*, Correlator::argument_type)>, std::_Select1st<std::pair<std::string const, void (Correlator::*)(char*, Correlator::argument_type)> >, std::less<std::string>, std::allocator<std::pair<std::string const, void (Correlator::*)(char*, Correlator::argument_type)> > >::find(std::string const&) const
 .text._ZSt18__throw_bad_typeidv
                0x0205a8ea       0x2a c:/nburn/gcc-m68k/bin/../lib/gcc/m68k-elf/4.2.1/../../../../m68k-elf/lib/m5206e\libstdc++.a(functexcept.o)
                0x0205a8ea                std::__throw_bad_typeid()
 .text._ZSt16__throw_bad_castv
                0x0205a914       0x2a c:/nburn/gcc-m68k/bin/../lib/gcc/m68k-elf/4.2.1/../../../../m68k-elf/lib/m5206e\libstdc++.a(functexcept.o)
                0x0205a914                std::__throw_bad_cast()
 .text._ZSt17__throw_bad_allocv
                0x0205a93e       0x2a c:/nburn/gcc-m68k/bin/../lib/gcc/m68k-elf/4.2.1/../../../../m68k-elf/lib/m5206e\libstdc++.a(functexcept.o)
                0x0205a93e                std::__throw_bad_alloc()
 .text._ZSt21__throw_bad_exceptionv
                0x0205a968       0x2a c:/nburn/gcc-m68k/bin/../lib/gcc/m68k-elf/4.2.1/../../../../m68k-elf/lib/m5206e\libstdc++.a(functexcept.o)
                0x0205a968                std::__throw_bad_exception()
 .text._ZNSt15underflow_errorD0Ev
                0x0205a992       0x2a c:/nburn/gcc-m68k/bin/../lib/gcc/m68k-elf/4.2.1/../../../../m68k-elf/lib/m5206e\libstdc++.a(functexcept.o)
                0x0205a992                std::underflow_error::~underflow_error()
 .text._ZNSt15underflow_errorD1Ev
                0x0205a9bc       0x16 c:/nburn/gcc-m68k/bin/../lib/gcc/m68k-elf/4.2.1/../../../../m68k-elf/lib/m5206e\libstdc++.a(functexcept.o)
                0x0205a9bc                std::underflow_error::~underflow_error()
 .text._ZNSt14overflow_errorD0Ev
                0x0205a9d2       0x2a c:/nburn/gcc-m68k/bin/../lib/gcc/m68k-elf/4.2.1/../../../../m68k-elf/lib/m5206e\libstdc++.a(functexcept.o)
                0x0205a9d2                std::overflow_error::~overflow_error()
 .text._ZNSt14overflow_errorD1Ev
                0x0205a9fc       0x16 c:/nburn/gcc-m68k/bin/../lib/gcc/m68k-elf/4.2.1/../../../../m68k-elf/lib/m5206e\libstdc++.a(functexcept.o)
                0x0205a9fc                std::overflow_error::~overflow_error()
 .text._ZNSt11range_errorD0Ev
                0x0205aa12       0x2a c:/nburn/gcc-m68k/bin/../lib/gcc/m68k-elf/4.2.1/../../../../m68k-elf/lib/m5206e\libstdc++.a(functexcept.o)
                0x0205aa12                std::range_error::~range_error()
 .text._ZNSt11range_errorD1Ev
                0x0205aa3c       0x16 c:/nburn/gcc-m68k/bin/../lib/gcc/m68k-elf/4.2.1/../../../../m68k-elf/lib/m5206e\libstdc++.a(functexcept.o)
                0x0205aa3c                std::range_error::~range_error()
 .text._ZNSt12out_of_rangeD0Ev
                0x0205aa52       0x2a c:/nburn/gcc-m68k/bin/../lib/gcc/m68k-elf/4.2.1/../../../../m68k-elf/lib/m5206e\libstdc++.a(functexcept.o)
                0x0205aa52                std::out_of_range::~out_of_range()
 .text._ZNSt12out_of_rangeD1Ev
                0x0205aa7c       0x16 c:/nburn/gcc-m68k/bin/../lib/gcc/m68k-elf/4.2.1/../../../../m68k-elf/lib/m5206e\libstdc++.a(functexcept.o)
                0x0205aa7c                std::out_of_range::~out_of_range()
 .text._ZNSt12length_errorD0Ev
                0x0205aa92       0x2a c:/nburn/gcc-m68k/bin/../lib/gcc/m68k-elf/4.2.1/../../../../m68k-elf/lib/m5206e\libstdc++.a(functexcept.o)
                0x0205aa92                std::length_error::~length_error()
 .text._ZNSt12length_errorD1Ev
                0x0205aabc       0x16 c:/nburn/gcc-m68k/bin/../lib/gcc/m68k-elf/4.2.1/../../../../m68k-elf/lib/m5206e\libstdc++.a(functexcept.o)
                0x0205aabc                std::length_error::~length_error()
 .text._ZNSt16invalid_argumentD0Ev
                0x0205aad2       0x2a c:/nburn/gcc-m68k/bin/../lib/gcc/m68k-elf/4.2.1/../../../../m68k-elf/lib/m5206e\libstdc++.a(functexcept.o)
                0x0205aad2                std::invalid_argument::~invalid_argument()
 .text._ZNSt16invalid_argumentD1Ev
                0x0205aafc       0x16 c:/nburn/gcc-m68k/bin/../lib/gcc/m68k-elf/4.2.1/../../../../m68k-elf/lib/m5206e\libstdc++.a(functexcept.o)
                0x0205aafc                std::invalid_argument::~invalid_argument()
 .text._ZNSt12domain_errorD0Ev
                0x0205ab12       0x2a c:/nburn/gcc-m68k/bin/../lib/gcc/m68k-elf/4.2.1/../../../../m68k-elf/lib/m5206e\libstdc++.a(functexcept.o)
                0x0205ab12                std::domain_error::~domain_error()
 .text._ZNSt12domain_errorD1Ev
                0x0205ab3c       0x16 c:/nburn/gcc-m68k/bin/../lib/gcc/m68k-elf/4.2.1/../../../../m68k-elf/lib/m5206e\libstdc++.a(functexcept.o)
                0x0205ab3c                std::domain_error::~domain_error()
 .text._ZSt19__throw_ios_failurePKc
                0x0205ab52       0x9c c:/nburn/gcc-m68k/bin/../lib/gcc/m68k-elf/4.2.1/../../../../m68k-elf/lib/m5206e\libstdc++.a(functexcept.o)
                0x0205ab52                std::__throw_ios_failure(char const*)
 .text._ZSt19__throw_logic_errorPKc
                0x0205abee       0xd8 c:/nburn/gcc-m68k/bin/../lib/gcc/m68k-elf/4.2.1/../../../../m68k-elf/lib/m5206e\libstdc++.a(functexcept.o)
                0x0205abee                std::__throw_logic_error(char const*)
 .text._ZSt23__throw_underflow_errorPKc
                0x0205acc6       0xd8 c:/nburn/gcc-m68k/bin/../lib/gcc/m68k-elf/4.2.1/../../../../m68k-elf/lib/m5206e\libstdc++.a(functexcept.o)
                0x0205acc6                std::__throw_underflow_error(char const*)
 .text._ZSt22__throw_overflow_errorPKc
                0x0205ad9e       0xd8 c:/nburn/gcc-m68k/bin/../lib/gcc/m68k-elf/4.2.1/../../../../m68k-elf/lib/m5206e\libstdc++.a(functexcept.o)
                0x0205ad9e                std::__throw_overflow_error(char const*)
 .text._ZSt24__throw_invalid_argumentPKc
                0x0205ae76       0xd8 c:/nburn/gcc-m68k/bin/../lib/gcc/m68k-elf/4.2.1/../../../../m68k-elf/lib/m5206e\libstdc++.a(functexcept.o)
                0x0205ae76                std::__throw_invalid_argument(char const*)
 .text._ZSt20__throw_domain_errorPKc
                0x0205af4e       0xd8 c:/nburn/gcc-m68k/bin/../lib/gcc/m68k-elf/4.2.1/../../../../m68k-elf/lib/m5206e\libstdc++.a(functexcept.o)
                0x0205af4e                std::__throw_domain_error(char const*)
 .text._ZSt19__throw_range_errorPKc
                0x0205b026       0xd8 c:/nburn/gcc-m68k/bin/../lib/gcc/m68k-elf/4.2.1/../../../../m68k-elf/lib/m5206e\libstdc++.a(functexcept.o)
                0x0205b026                std::__throw_range_error(char const*)
 .text._ZSt21__throw_runtime_errorPKc
                0x0205b0fe       0xd8 c:/nburn/gcc-m68k/bin/../lib/gcc/m68k-elf/4.2.1/../../../../m68k-elf/lib/m5206e\libstdc++.a(functexcept.o)
                0x0205b0fe                std::__throw_runtime_error(char const*)
 .text._ZSt20__throw_out_of_rangePKc
                0x0205b1d6       0xd8 c:/nburn/gcc-m68k/bin/../lib/gcc/m68k-elf/4.2.1/../../../../m68k-elf/lib/m5206e\libstdc++.a(functexcept.o)
                0x0205b1d6                std::__throw_out_of_range(char const*)
 .text._ZSt20__throw_length_errorPKc
                0x0205b2ae       0xd8 c:/nburn/gcc-m68k/bin/../lib/gcc/m68k-elf/4.2.1/../../../../m68k-elf/lib/m5206e\libstdc++.a(functexcept.o)
                0x0205b2ae                std::__throw_length_error(char const*)
 .text._ZNKSt8ios_base7failure4whatEv
                0x0205b386       0x10 c:/nburn/gcc-m68k/bin/../lib/gcc/m68k-elf/4.2.1/../../../../m68k-elf/lib/m5206e\libstdc++.a(ios_failure.o)
                0x0205b386                std::ios_base::failure::what() const
 .text._ZNSt8ios_base7failureD1Ev
                0x0205b396       0x64 c:/nburn/gcc-m68k/bin/../lib/gcc/m68k-elf/4.2.1/../../../../m68k-elf/lib/m5206e\libstdc++.a(ios_failure.o)
                0x0205b396                std::ios_base::failure::~failure()
 .text._ZNSt8ios_base7failureC1ERKSs
                0x0205b3fa       0x50 c:/nburn/gcc-m68k/bin/../lib/gcc/m68k-elf/4.2.1/../../../../m68k-elf/lib/m5206e\libstdc++.a(ios_failure.o)
                0x0205b3fa                std::ios_base::failure::failure(std::string const&)
 .text._ZNSt8ios_base7failureC2ERKSs
                0x0205b44a       0x50 c:/nburn/gcc-m68k/bin/../lib/gcc/m68k-elf/4.2.1/../../../../m68k-elf/lib/m5206e\libstdc++.a(ios_failure.o)
                0x0205b44a                std::ios_base::failure::failure(std::string const&)
 .text._ZNSt8ios_base7failureD2Ev
                0x0205b49a       0x64 c:/nburn/gcc-m68k/bin/../lib/gcc/m68k-elf/4.2.1/../../../../m68k-elf/lib/m5206e\libstdc++.a(ios_failure.o)
                0x0205b49a                std::ios_base::failure::~failure()
 .text._ZNSt8ios_base7failureD0Ev
                0x0205b4fe       0x74 c:/nburn/gcc-m68k/bin/../lib/gcc/m68k-elf/4.2.1/../../../../m68k-elf/lib/m5206e\libstdc++.a(ios_failure.o)
                0x0205b4fe                std::ios_base::failure::~failure()
 .text._ZNKSt13runtime_error4whatEv
                0x0205b572       0x10 c:/nburn/gcc-m68k/bin/../lib/gcc/m68k-elf/4.2.1/../../../../m68k-elf/lib/m5206e\libstdc++.a(stdexcept.o)
                0x0205b572                std::runtime_error::what() const
 .text._ZNSt11logic_errorD1Ev
                0x0205b582       0x64 c:/nburn/gcc-m68k/bin/../lib/gcc/m68k-elf/4.2.1/../../../../m68k-elf/lib/m5206e\libstdc++.a(stdexcept.o)
                0x0205b582                std::logic_error::~logic_error()
 .text._ZNSt13runtime_errorC2ERKSs
                0x0205b5e6       0x3a c:/nburn/gcc-m68k/bin/../lib/gcc/m68k-elf/4.2.1/../../../../m68k-elf/lib/m5206e\libstdc++.a(stdexcept.o)
                0x0205b5e6                std::runtime_error::runtime_error(std::string const&)
 .text._ZNSt15underflow_errorC1ERKSs
                0x0205b620       0x26 c:/nburn/gcc-m68k/bin/../lib/gcc/m68k-elf/4.2.1/../../../../m68k-elf/lib/m5206e\libstdc++.a(stdexcept.o)
                0x0205b620                std::underflow_error::underflow_error(std::string const&)
 .text._ZNSt15underflow_errorC2ERKSs
                0x0205b646       0x26 c:/nburn/gcc-m68k/bin/../lib/gcc/m68k-elf/4.2.1/../../../../m68k-elf/lib/m5206e\libstdc++.a(stdexcept.o)
                0x0205b646                std::underflow_error::underflow_error(std::string const&)
 .text._ZNSt14overflow_errorC1ERKSs
                0x0205b66c       0x26 c:/nburn/gcc-m68k/bin/../lib/gcc/m68k-elf/4.2.1/../../../../m68k-elf/lib/m5206e\libstdc++.a(stdexcept.o)
                0x0205b66c                std::overflow_error::overflow_error(std::string const&)
 .text._ZNSt14overflow_errorC2ERKSs
                0x0205b692       0x26 c:/nburn/gcc-m68k/bin/../lib/gcc/m68k-elf/4.2.1/../../../../m68k-elf/lib/m5206e\libstdc++.a(stdexcept.o)
                0x0205b692                std::overflow_error::overflow_error(std::string const&)
 .text._ZNSt11range_errorC1ERKSs
                0x0205b6b8       0x26 c:/nburn/gcc-m68k/bin/../lib/gcc/m68k-elf/4.2.1/../../../../m68k-elf/lib/m5206e\libstdc++.a(stdexcept.o)
                0x0205b6b8                std::range_error::range_error(std::string const&)
 .text._ZNSt11range_errorC2ERKSs
                0x0205b6de       0x26 c:/nburn/gcc-m68k/bin/../lib/gcc/m68k-elf/4.2.1/../../../../m68k-elf/lib/m5206e\libstdc++.a(stdexcept.o)
                0x0205b6de                std::range_error::range_error(std::string const&)
 .text._ZNSt11logic_errorC1ERKSs
                0x0205b704       0x3a c:/nburn/gcc-m68k/bin/../lib/gcc/m68k-elf/4.2.1/../../../../m68k-elf/lib/m5206e\libstdc++.a(stdexcept.o)
                0x0205b704                std::logic_error::logic_error(std::string const&)
 .text._ZNSt11logic_errorC2ERKSs
                0x0205b73e       0x3a c:/nburn/gcc-m68k/bin/../lib/gcc/m68k-elf/4.2.1/../../../../m68k-elf/lib/m5206e\libstdc++.a(stdexcept.o)
                0x0205b73e                std::logic_error::logic_error(std::string const&)
 .text._ZNSt12out_of_rangeC1ERKSs
                0x0205b778       0x26 c:/nburn/gcc-m68k/bin/../lib/gcc/m68k-elf/4.2.1/../../../../m68k-elf/lib/m5206e\libstdc++.a(stdexcept.o)
                0x0205b778                std::out_of_range::out_of_range(std::string const&)
 .text._ZNSt12out_of_rangeC2ERKSs
                0x0205b79e       0x26 c:/nburn/gcc-m68k/bin/../lib/gcc/m68k-elf/4.2.1/../../../../m68k-elf/lib/m5206e\libstdc++.a(stdexcept.o)
                0x0205b79e                std::out_of_range::out_of_range(std::string const&)
 .text._ZNSt12length_errorC1ERKSs
                0x0205b7c4       0x26 c:/nburn/gcc-m68k/bin/../lib/gcc/m68k-elf/4.2.1/../../../../m68k-elf/lib/m5206e\libstdc++.a(stdexcept.o)
                0x0205b7c4                std::length_error::length_error(std::string const&)
 .text._ZNSt12length_errorC2ERKSs
                0x0205b7ea       0x26 c:/nburn/gcc-m68k/bin/../lib/gcc/m68k-elf/4.2.1/../../../../m68k-elf/lib/m5206e\libstdc++.a(stdexcept.o)
                0x0205b7ea                std::length_error::length_error(std::string const&)
 .text._ZNSt16invalid_argumentC1ERKSs
                0x0205b810       0x26 c:/nburn/gcc-m68k/bin/../lib/gcc/m68k-elf/4.2.1/../../../../m68k-elf/lib/m5206e\libstdc++.a(stdexcept.o)
                0x0205b810                std::invalid_argument::invalid_argument(std::string const&)
 .text._ZNSt16invalid_argumentC2ERKSs
                0x0205b836       0x26 c:/nburn/gcc-m68k/bin/../lib/gcc/m68k-elf/4.2.1/../../../../m68k-elf/lib/m5206e\libstdc++.a(stdexcept.o)
                0x0205b836                std::invalid_argument::invalid_argument(std::string const&)
 .text._ZNSt12domain_errorC1ERKSs
                0x0205b85c       0x26 c:/nburn/gcc-m68k/bin/../lib/gcc/m68k-elf/4.2.1/../../../../m68k-elf/lib/m5206e\libstdc++.a(stdexcept.o)
                0x0205b85c                std::domain_error::domain_error(std::string const&)
 .text._ZNSt12domain_errorC2ERKSs
                0x0205b882       0x26 c:/nburn/gcc-m68k/bin/../lib/gcc/m68k-elf/4.2.1/../../../../m68k-elf/lib/m5206e\libstdc++.a(stdexcept.o)
                0x0205b882                std::domain_error::domain_error(std::string const&)
 .text._ZNKSt11logic_error4whatEv
                0x0205b8a8       0x10 c:/nburn/gcc-m68k/bin/../lib/gcc/m68k-elf/4.2.1/../../../../m68k-elf/lib/m5206e\libstdc++.a(stdexcept.o)
                0x0205b8a8                std::logic_error::what() const
 .text._ZNSt13runtime_errorC1ERKSs
                0x0205b8b8       0x3a c:/nburn/gcc-m68k/bin/../lib/gcc/m68k-elf/4.2.1/../../../../m68k-elf/lib/m5206e\libstdc++.a(stdexcept.o)
                0x0205b8b8                std::runtime_error::runtime_error(std::string const&)
 .text._ZNSt13runtime_errorD1Ev
                0x0205b8f2       0x64 c:/nburn/gcc-m68k/bin/../lib/gcc/m68k-elf/4.2.1/../../../../m68k-elf/lib/m5206e\libstdc++.a(stdexcept.o)
                0x0205b8f2                std::runtime_error::~runtime_error()
 .text._ZNSt13runtime_errorD2Ev
                0x0205b956       0x64 c:/nburn/gcc-m68k/bin/../lib/gcc/m68k-elf/4.2.1/../../../../m68k-elf/lib/m5206e\libstdc++.a(stdexcept.o)
                0x0205b956                std::runtime_error::~runtime_error()
 .text._ZNSt13runtime_errorD0Ev
                0x0205b9ba       0x74 c:/nburn/gcc-m68k/bin/../lib/gcc/m68k-elf/4.2.1/../../../../m68k-elf/lib/m5206e\libstdc++.a(stdexcept.o)
                0x0205b9ba                std::runtime_error::~runtime_error()
 .text._ZNSt11logic_errorD2Ev
                0x0205ba2e       0x64 c:/nburn/gcc-m68k/bin/../lib/gcc/m68k-elf/4.2.1/../../../../m68k-elf/lib/m5206e\libstdc++.a(stdexcept.o)
                0x0205ba2e                std::logic_error::~logic_error()
 .text._ZNSt11logic_errorD0Ev
                0x0205ba92       0x74 c:/nburn/gcc-m68k/bin/../lib/gcc/m68k-elf/4.2.1/../../../../m68k-elf/lib/m5206e\libstdc++.a(stdexcept.o)
                0x0205ba92                std::logic_error::~logic_error()
 .text._ZSt18_Rb_tree_incrementPSt18_Rb_tree_node_base
                0x0205bb06       0x5c c:/nburn/gcc-m68k/bin/../lib/gcc/m68k-elf/4.2.1/../../../../m68k-elf/lib/m5206e\libstdc++.a(tree.o)
                0x0205bb06                std::_Rb_tree_increment(std::_Rb_tree_node_base*)
 .text._ZSt18_Rb_tree_incrementPKSt18_Rb_tree_node_base
                0x0205bb62        0xc c:/nburn/gcc-m68k/bin/../lib/gcc/m68k-elf/4.2.1/../../../../m68k-elf/lib/m5206e\libstdc++.a(tree.o)
                0x0205bb62                std::_Rb_tree_increment(std::_Rb_tree_node_base const*)
 .text._ZSt18_Rb_tree_decrementPSt18_Rb_tree_node_base
                0x0205bb6e       0x60 c:/nburn/gcc-m68k/bin/../lib/gcc/m68k-elf/4.2.1/../../../../m68k-elf/lib/m5206e\libstdc++.a(tree.o)
                0x0205bb6e                std::_Rb_tree_decrement(std::_Rb_tree_node_base*)
 .text._ZSt18_Rb_tree_decrementPKSt18_Rb_tree_node_base
                0x0205bbce        0xc c:/nburn/gcc-m68k/bin/../lib/gcc/m68k-elf/4.2.1/../../../../m68k-elf/lib/m5206e\libstdc++.a(tree.o)
                0x0205bbce                std::_Rb_tree_decrement(std::_Rb_tree_node_base const*)
 .text._ZSt20_Rb_tree_rotate_leftPSt18_Rb_tree_node_baseRS0_
                0x0205bbda       0x74 c:/nburn/gcc-m68k/bin/../lib/gcc/m68k-elf/4.2.1/../../../../m68k-elf/lib/m5206e\libstdc++.a(tree.o)
                0x0205bbda                std::_Rb_tree_rotate_left(std::_Rb_tree_node_base*, std::_Rb_tree_node_base*&)
 .text._ZSt21_Rb_tree_rotate_rightPSt18_Rb_tree_node_baseRS0_
                0x0205bc4e       0x74 c:/nburn/gcc-m68k/bin/../lib/gcc/m68k-elf/4.2.1/../../../../m68k-elf/lib/m5206e\libstdc++.a(tree.o)
                0x0205bc4e                std::_Rb_tree_rotate_right(std::_Rb_tree_node_base*, std::_Rb_tree_node_base*&)
 .text._ZSt29_Rb_tree_insert_and_rebalancebPSt18_Rb_tree_node_baseS0_RS_
                0x0205bcc2      0x18a c:/nburn/gcc-m68k/bin/../lib/gcc/m68k-elf/4.2.1/../../../../m68k-elf/lib/m5206e\libstdc++.a(tree.o)
                0x0205bcc2                std::_Rb_tree_insert_and_rebalance(bool, std::_Rb_tree_node_base*, std::_Rb_tree_node_base*, std::_Rb_tree_node_base&)
 .text._ZSt20_Rb_tree_black_countPKSt18_Rb_tree_node_baseS1_
                0x0205be4c       0x3c c:/nburn/gcc-m68k/bin/../lib/gcc/m68k-elf/4.2.1/../../../../m68k-elf/lib/m5206e\libstdc++.a(tree.o)
                0x0205be4c                std::_Rb_tree_black_count(std::_Rb_tree_node_base const*, std::_Rb_tree_node_base const*)
 .text._ZSt28_Rb_tree_rebalance_for_erasePSt18_Rb_tree_node_baseRS_
                0x0205be88      0x33c c:/nburn/gcc-m68k/bin/../lib/gcc/m68k-elf/4.2.1/../../../../m68k-elf/lib/m5206e\libstdc++.a(tree.o)
                0x0205be88                std::_Rb_tree_rebalance_for_erase(std::_Rb_tree_node_base*, std::_Rb_tree_node_base&)
 .text._ZNKSs7_M_dataEv
                0x0205c1c4        0xe c:/nburn/gcc-m68k/bin/../lib/gcc/m68k-elf/4.2.1/../../../../m68k-elf/lib/m5206e\libstdc++.a(string-inst.o)
                0x0205c1c4                std::string::_M_data() const
 .text._ZNSs7_M_dataEPc
                0x0205c1d2       0x14 c:/nburn/gcc-m68k/bin/../lib/gcc/m68k-elf/4.2.1/../../../../m68k-elf/lib/m5206e\libstdc++.a(string-inst.o)
                0x0205c1d2                std::string::_M_data(char*)
 .text._ZNKSs6_M_repEv
                0x0205c1e6       0x14 c:/nburn/gcc-m68k/bin/../lib/gcc/m68k-elf/4.2.1/../../../../m68k-elf/lib/m5206e\libstdc++.a(string-inst.o)
                0x0205c1e6                std::string::_M_rep() const
 .text._ZNKSs9_M_ibeginEv
                0x0205c1fa        0xe c:/nburn/gcc-m68k/bin/../lib/gcc/m68k-elf/4.2.1/../../../../m68k-elf/lib/m5206e\libstdc++.a(string-inst.o)
                0x0205c1fa                std::string::_M_ibegin() const
 .text._ZNKSs7_M_iendEv
                0x0205c208       0x14 c:/nburn/gcc-m68k/bin/../lib/gcc/m68k-elf/4.2.1/../../../../m68k-elf/lib/m5206e\libstdc++.a(string-inst.o)
                0x0205c208                std::string::_M_iend() const
 .text._ZNKSs8_M_limitEmm
                0x0205c21c       0x20 c:/nburn/gcc-m68k/bin/../lib/gcc/m68k-elf/4.2.1/../../../../m68k-elf/lib/m5206e\libstdc++.a(string-inst.o)
                0x0205c21c                std::string::_M_limit(unsigned long, unsigned long) const
 .text._ZNKSs11_M_disjunctEPKc
                0x0205c23c       0x28 c:/nburn/gcc-m68k/bin/../lib/gcc/m68k-elf/4.2.1/../../../../m68k-elf/lib/m5206e\libstdc++.a(string-inst.o)
                0x0205c23c                std::string::_M_disjunct(char const*) const
 .text._ZNSs12_S_empty_repEv
                0x0205c264        0xe c:/nburn/gcc-m68k/bin/../lib/gcc/m68k-elf/4.2.1/../../../../m68k-elf/lib/m5206e\libstdc++.a(string-inst.o)
                0x0205c264                std::string::_S_empty_rep()
 .text._ZNSsC1Ev
                0x0205c272       0x12 c:/nburn/gcc-m68k/bin/../lib/gcc/m68k-elf/4.2.1/../../../../m68k-elf/lib/m5206e\libstdc++.a(string-inst.o)
                0x0205c272                std::basic_string<char, std::char_traits<char>, std::allocator<char> >::basic_string()
 .text._ZNKSs5beginEv
                0x0205c284        0xe c:/nburn/gcc-m68k/bin/../lib/gcc/m68k-elf/4.2.1/../../../../m68k-elf/lib/m5206e\libstdc++.a(string-inst.o)
                0x0205c284                std::string::begin() const
 .text._ZNKSs3endEv
                0x0205c292       0x14 c:/nburn/gcc-m68k/bin/../lib/gcc/m68k-elf/4.2.1/../../../../m68k-elf/lib/m5206e\libstdc++.a(string-inst.o)
                0x0205c292                std::string::end() const
 .text._ZNKSs4sizeEv
                0x0205c2a6       0x12 c:/nburn/gcc-m68k/bin/../lib/gcc/m68k-elf/4.2.1/../../../../m68k-elf/lib/m5206e\libstdc++.a(string-inst.o)
                0x0205c2a6                std::string::size() const
 .text._ZNKSs8max_sizeEv
                0x0205c2b8        0xe c:/nburn/gcc-m68k/bin/../lib/gcc/m68k-elf/4.2.1/../../../../m68k-elf/lib/m5206e\libstdc++.a(string-inst.o)
                0x0205c2b8                std::string::max_size() const
 .text._ZNKSs8capacityEv
                0x0205c2c6       0x12 c:/nburn/gcc-m68k/bin/../lib/gcc/m68k-elf/4.2.1/../../../../m68k-elf/lib/m5206e\libstdc++.a(string-inst.o)
                0x0205c2c6                std::string::capacity() const
 .text._ZNKSs4dataEv
                0x0205c2d8        0xe c:/nburn/gcc-m68k/bin/../lib/gcc/m68k-elf/4.2.1/../../../../m68k-elf/lib/m5206e\libstdc++.a(string-inst.o)
                0x0205c2d8                std::string::data() const
 .text._ZNKSs13get_allocatorEv
                0x0205c2e6        0xa c:/nburn/gcc-m68k/bin/../lib/gcc/m68k-elf/4.2.1/../../../../m68k-elf/lib/m5206e\libstdc++.a(string-inst.o)
                0x0205c2e6                std::string::get_allocator() const
 .text._ZNSs12_Alloc_hiderC1EPcRKSaIcE
                0x0205c2f0       0x10 c:/nburn/gcc-m68k/bin/../lib/gcc/m68k-elf/4.2.1/../../../../m68k-elf/lib/m5206e\libstdc++.a(string-inst.o)
                0x0205c2f0                std::string::_Alloc_hider::_Alloc_hider(char*, std::allocator<char> const&)
 .text._ZNSs4_Rep12_S_empty_repEv
                0x0205c300        0xe c:/nburn/gcc-m68k/bin/../lib/gcc/m68k-elf/4.2.1/../../../../m68k-elf/lib/m5206e\libstdc++.a(string-inst.o)
                0x0205c300                std::string::_Rep::_S_empty_rep()
 .text._ZNKSs4_Rep12_M_is_leakedEv
                0x0205c30e       0x16 c:/nburn/gcc-m68k/bin/../lib/gcc/m68k-elf/4.2.1/../../../../m68k-elf/lib/m5206e\libstdc++.a(string-inst.o)
                0x0205c30e                std::string::_Rep::_M_is_leaked() const
 .text._ZNKSs4_Rep12_M_is_sharedEv
                0x0205c324       0x16 c:/nburn/gcc-m68k/bin/../lib/gcc/m68k-elf/4.2.1/../../../../m68k-elf/lib/m5206e\libstdc++.a(string-inst.o)
                0x0205c324                std::string::_Rep::_M_is_shared() const
 .text._ZNSs4_Rep13_M_set_leakedEv
                0x0205c33a       0x12 c:/nburn/gcc-m68k/bin/../lib/gcc/m68k-elf/4.2.1/../../../../m68k-elf/lib/m5206e\libstdc++.a(string-inst.o)
                0x0205c33a                std::string::_Rep::_M_set_leaked()
 .text._ZNSs4_Rep15_M_set_sharableEv
                0x0205c34c       0x10 c:/nburn/gcc-m68k/bin/../lib/gcc/m68k-elf/4.2.1/../../../../m68k-elf/lib/m5206e\libstdc++.a(string-inst.o)
                0x0205c34c                std::string::_Rep::_M_set_sharable()
 .text._ZNSs4_Rep26_M_set_length_and_sharableEm
                0x0205c35c       0x1c c:/nburn/gcc-m68k/bin/../lib/gcc/m68k-elf/4.2.1/../../../../m68k-elf/lib/m5206e\libstdc++.a(string-inst.o)
                0x0205c35c                std::string::_Rep::_M_set_length_and_sharable(unsigned long)
 .text._ZNSs4_Rep10_M_refdataEv
                0x0205c378       0x12 c:/nburn/gcc-m68k/bin/../lib/gcc/m68k-elf/4.2.1/../../../../m68k-elf/lib/m5206e\libstdc++.a(string-inst.o)
                0x0205c378                std::string::_Rep::_M_refdata()
 .text._ZN9__gnu_cxxeqIPcSsEEbRKNS_17__normal_iteratorIT_T0_EES7_
                0x0205c38a       0x1a c:/nburn/gcc-m68k/bin/../lib/gcc/m68k-elf/4.2.1/../../../../m68k-elf/lib/m5206e\libstdc++.a(string-inst.o)
                0x0205c38a                bool __gnu_cxx::operator==<char*, std::string>(__gnu_cxx::__normal_iterator<char*, std::string> const&, __gnu_cxx::__normal_iterator<char*, std::string> const&)
 .text._ZNSs12_Alloc_hiderC2EPcRKSaIcE
                0x0205c3a4       0x10 c:/nburn/gcc-m68k/bin/../lib/gcc/m68k-elf/4.2.1/../../../../m68k-elf/lib/m5206e\libstdc++.a(string-inst.o)
                0x0205c3a4                std::string::_Alloc_hider::_Alloc_hider(char*, std::allocator<char> const&)
 .text._ZNSs4_Rep10_M_refcopyEv
                0x0205c3b4       0x2c c:/nburn/gcc-m68k/bin/../lib/gcc/m68k-elf/4.2.1/../../../../m68k-elf/lib/m5206e\libstdc++.a(string-inst.o)
                0x0205c3b4                std::string::_Rep::_M_refcopy()
 .text._ZNKSs15_M_check_lengthEmmPKc
                0x0205c3e0       0x2e c:/nburn/gcc-m68k/bin/../lib/gcc/m68k-elf/4.2.1/../../../../m68k-elf/lib/m5206e\libstdc++.a(string-inst.o)
                0x0205c3e0                std::string::_M_check_length(unsigned long, unsigned long, char const*) const
 .text._ZNKSs8_M_checkEmPKc
                0x0205c40e       0x22 c:/nburn/gcc-m68k/bin/../lib/gcc/m68k-elf/4.2.1/../../../../m68k-elf/lib/m5206e\libstdc++.a(string-inst.o)
                0x0205c40e                std::string::_M_check(unsigned long, char const*) const
 .text._ZNSs9_M_assignEPcmc
                0x0205c430       0x3c c:/nburn/gcc-m68k/bin/../lib/gcc/m68k-elf/4.2.1/../../../../m68k-elf/lib/m5206e\libstdc++.a(string-inst.o)
                0x0205c430                std::string::_M_assign(char*, unsigned long, char)
 .text._ZNSs7_M_moveEPcPKcm
                0x0205c46c       0x22 c:/nburn/gcc-m68k/bin/../lib/gcc/m68k-elf/4.2.1/../../../../m68k-elf/lib/m5206e\libstdc++.a(string-inst.o)
                0x0205c46c                std::string::_M_move(char*, char const*, unsigned long)
 .text._ZNSs7_M_copyEPcPKcm
                0x0205c48e       0x22 c:/nburn/gcc-m68k/bin/../lib/gcc/m68k-elf/4.2.1/../../../../m68k-elf/lib/m5206e\libstdc++.a(string-inst.o)
                0x0205c48e                std::string::_M_copy(char*, char const*, unsigned long)
 .text._ZNKSs5c_strEv
                0x0205c4b0        0xe c:/nburn/gcc-m68k/bin/../lib/gcc/m68k-elf/4.2.1/../../../../m68k-elf/lib/m5206e\libstdc++.a(string-inst.o)
                0x0205c4b0                std::string::c_str() const
 .text._ZNKSsixEm
                0x0205c4be       0x12 c:/nburn/gcc-m68k/bin/../lib/gcc/m68k-elf/4.2.1/../../../../m68k-elf/lib/m5206e\libstdc++.a(string-inst.o)
                0x0205c4be                std::string::operator[](unsigned long) const
 .text._ZNKSs4findEcm
                0x0205c4d0       0x4c c:/nburn/gcc-m68k/bin/../lib/gcc/m68k-elf/4.2.1/../../../../m68k-elf/lib/m5206e\libstdc++.a(string-inst.o)
                0x0205c4d0                std::string::find(char, unsigned long) const
 .text._ZNKSs13find_first_ofEcm
                0x0205c51c       0x16 c:/nburn/gcc-m68k/bin/../lib/gcc/m68k-elf/4.2.1/../../../../m68k-elf/lib/m5206e\libstdc++.a(string-inst.o)
                0x0205c51c                std::string::find_first_of(char, unsigned long) const
 .text._ZNKSs2atEm
                0x0205c532       0x26 c:/nburn/gcc-m68k/bin/../lib/gcc/m68k-elf/4.2.1/../../../../m68k-elf/lib/m5206e\libstdc++.a(string-inst.o)
                0x0205c532                std::string::at(unsigned long) const
 .text._ZNKSs5emptyEv
                0x0205c558       0x18 c:/nburn/gcc-m68k/bin/../lib/gcc/m68k-elf/4.2.1/../../../../m68k-elf/lib/m5206e\libstdc++.a(string-inst.o)
                0x0205c558                std::string::empty() const
 .text._ZNKSs6lengthEv
                0x0205c570       0x12 c:/nburn/gcc-m68k/bin/../lib/gcc/m68k-elf/4.2.1/../../../../m68k-elf/lib/m5206e\libstdc++.a(string-inst.o)
                0x0205c570                std::string::length() const
 .text._ZNSsC2Ev
                0x0205c582       0x12 c:/nburn/gcc-m68k/bin/../lib/gcc/m68k-elf/4.2.1/../../../../m68k-elf/lib/m5206e\libstdc++.a(string-inst.o)
                0x0205c582                std::basic_string<char, std::char_traits<char>, std::allocator<char> >::basic_string()
 .text._ZN9__gnu_cxxeqIPKcSsEEbRKNS_17__normal_iteratorIT_T0_EES8_
                0x0205c594       0x1a c:/nburn/gcc-m68k/bin/../lib/gcc/m68k-elf/4.2.1/../../../../m68k-elf/lib/m5206e\libstdc++.a(string-inst.o)
                0x0205c594                bool __gnu_cxx::operator==<char const*, std::string>(__gnu_cxx::__normal_iterator<char const*, std::string> const&, __gnu_cxx::__normal_iterator<char const*, std::string> const&)
 .text._ZNKSs16find_last_not_ofEcm
                0x0205c5ae       0x5a c:/nburn/gcc-m68k/bin/../lib/gcc/m68k-elf/4.2.1/../../../../m68k-elf/lib/m5206e\libstdc++.a(string-inst.o)
                0x0205c5ae                std::string::find_last_not_of(char, unsigned long) const
 .text._ZNKSs17find_first_not_ofEcm
                0x0205c608       0x52 c:/nburn/gcc-m68k/bin/../lib/gcc/m68k-elf/4.2.1/../../../../m68k-elf/lib/m5206e\libstdc++.a(string-inst.o)
                0x0205c608                std::string::find_first_not_of(char, unsigned long) const
 .text._ZNKSs5rfindEcm
                0x0205c65a       0x6a c:/nburn/gcc-m68k/bin/../lib/gcc/m68k-elf/4.2.1/../../../../m68k-elf/lib/m5206e\libstdc++.a(string-inst.o)
                0x0205c65a                std::string::rfind(char, unsigned long) const
 .text._ZNKSs12find_last_ofEcm
                0x0205c6c4       0x16 c:/nburn/gcc-m68k/bin/../lib/gcc/m68k-elf/4.2.1/../../../../m68k-elf/lib/m5206e\libstdc++.a(string-inst.o)
                0x0205c6c4                std::string::find_last_of(char, unsigned long) const
 .text._ZNSs4_Rep9_S_createEmmRKSaIcE
                0x0205c6da       0xa4 c:/nburn/gcc-m68k/bin/../lib/gcc/m68k-elf/4.2.1/../../../../m68k-elf/lib/m5206e\libstdc++.a(string-inst.o)
                0x0205c6da                std::string::_Rep::_S_create(unsigned long, unsigned long, std::allocator<char> const&)
 .text._ZNSs4_Rep10_M_destroyERKSaIcE
                0x0205c77e        0xc c:/nburn/gcc-m68k/bin/../lib/gcc/m68k-elf/4.2.1/../../../../m68k-elf/lib/m5206e\libstdc++.a(string-inst.o)
                0x0205c77e                std::string::_Rep::_M_destroy(std::allocator<char> const&)
 .text._ZNSs4_Rep10_M_disposeERKSaIcE
                0x0205c78a       0x2c c:/nburn/gcc-m68k/bin/../lib/gcc/m68k-elf/4.2.1/../../../../m68k-elf/lib/m5206e\libstdc++.a(string-inst.o)
                0x0205c78a                std::string::_Rep::_M_dispose(std::allocator<char> const&)
 .text._ZNKSs16find_last_not_ofEPKcmm
                0x0205c7b6       0x84 c:/nburn/gcc-m68k/bin/../lib/gcc/m68k-elf/4.2.1/../../../../m68k-elf/lib/m5206e\libstdc++.a(string-inst.o)
                0x0205c7b6                std::string::find_last_not_of(char const*, unsigned long, unsigned long) const
 .text._ZNKSs16find_last_not_ofERKSsm
                0x0205c83a       0x22 c:/nburn/gcc-m68k/bin/../lib/gcc/m68k-elf/4.2.1/../../../../m68k-elf/lib/m5206e\libstdc++.a(string-inst.o)
                0x0205c83a                std::string::find_last_not_of(std::string const&, unsigned long) const
 .text._ZNKSs17find_first_not_ofEPKcmm
                0x0205c85c       0x58 c:/nburn/gcc-m68k/bin/../lib/gcc/m68k-elf/4.2.1/../../../../m68k-elf/lib/m5206e\libstdc++.a(string-inst.o)
                0x0205c85c                std::string::find_first_not_of(char const*, unsigned long, unsigned long) const
 .text._ZNKSs17find_first_not_ofERKSsm
                0x0205c8b4       0x22 c:/nburn/gcc-m68k/bin/../lib/gcc/m68k-elf/4.2.1/../../../../m68k-elf/lib/m5206e\libstdc++.a(string-inst.o)
                0x0205c8b4                std::string::find_first_not_of(std::string const&, unsigned long) const
 .text._ZNKSs12find_last_ofEPKcmm
                0x0205c8d6       0x88 c:/nburn/gcc-m68k/bin/../lib/gcc/m68k-elf/4.2.1/../../../../m68k-elf/lib/m5206e\libstdc++.a(string-inst.o)
                0x0205c8d6                std::string::find_last_of(char const*, unsigned long, unsigned long) const
 .text._ZNKSs12find_last_ofERKSsm
                0x0205c95e       0x22 c:/nburn/gcc-m68k/bin/../lib/gcc/m68k-elf/4.2.1/../../../../m68k-elf/lib/m5206e\libstdc++.a(string-inst.o)
                0x0205c95e                std::string::find_last_of(std::string const&, unsigned long) const
 .text._ZNKSs13find_first_ofEPKcmm
                0x0205c980       0x5a c:/nburn/gcc-m68k/bin/../lib/gcc/m68k-elf/4.2.1/../../../../m68k-elf/lib/m5206e\libstdc++.a(string-inst.o)
                0x0205c980                std::string::find_first_of(char const*, unsigned long, unsigned long) const
 .text._ZNKSs13find_first_ofERKSsm
                0x0205c9da       0x22 c:/nburn/gcc-m68k/bin/../lib/gcc/m68k-elf/4.2.1/../../../../m68k-elf/lib/m5206e\libstdc++.a(string-inst.o)
                0x0205c9da                std::string::find_first_of(std::string const&, unsigned long) const
 .text._ZNKSs7compareERKSs
                0x0205c9fc       0x56 c:/nburn/gcc-m68k/bin/../lib/gcc/m68k-elf/4.2.1/../../../../m68k-elf/lib/m5206e\libstdc++.a(string-inst.o)
                0x0205c9fc                std::string::compare(std::string const&) const
 .text._ZNKSs5rfindEPKcmm
                0x0205ca52       0x9e c:/nburn/gcc-m68k/bin/../lib/gcc/m68k-elf/4.2.1/../../../../m68k-elf/lib/m5206e\libstdc++.a(string-inst.o)
                0x0205ca52                std::string::rfind(char const*, unsigned long, unsigned long) const
 .text._ZNKSs5rfindERKSsm
                0x0205caf0       0x22 c:/nburn/gcc-m68k/bin/../lib/gcc/m68k-elf/4.2.1/../../../../m68k-elf/lib/m5206e\libstdc++.a(string-inst.o)
                0x0205caf0                std::string::rfind(std::string const&, unsigned long) const
 .text._ZNKSs4findEPKcmm
                0x0205cb12       0x90 c:/nburn/gcc-m68k/bin/../lib/gcc/m68k-elf/4.2.1/../../../../m68k-elf/lib/m5206e\libstdc++.a(string-inst.o)
                0x0205cb12                std::string::find(char const*, unsigned long, unsigned long) const
 .text._ZNKSs4findERKSsm
                0x0205cba2       0x22 c:/nburn/gcc-m68k/bin/../lib/gcc/m68k-elf/4.2.1/../../../../m68k-elf/lib/m5206e\libstdc++.a(string-inst.o)
                0x0205cba2                std::string::find(std::string const&, unsigned long) const
 .text._ZNKSs7compareEPKc
                0x0205cbc4       0x5c c:/nburn/gcc-m68k/bin/../lib/gcc/m68k-elf/4.2.1/../../../../m68k-elf/lib/m5206e\libstdc++.a(string-inst.o)
                0x0205cbc4                std::string::compare(char const*) const
 .text._ZNKSs16find_last_not_ofEPKcm
                0x0205cc20       0x2c c:/nburn/gcc-m68k/bin/../lib/gcc/m68k-elf/4.2.1/../../../../m68k-elf/lib/m5206e\libstdc++.a(string-inst.o)
                0x0205cc20                std::string::find_last_not_of(char const*, unsigned long) const
 .text._ZNKSs17find_first_not_ofEPKcm
                0x0205cc4c       0x2c c:/nburn/gcc-m68k/bin/../lib/gcc/m68k-elf/4.2.1/../../../../m68k-elf/lib/m5206e\libstdc++.a(string-inst.o)
                0x0205cc4c                std::string::find_first_not_of(char const*, unsigned long) const
 .text._ZNKSs12find_last_ofEPKcm
                0x0205cc78       0x2c c:/nburn/gcc-m68k/bin/../lib/gcc/m68k-elf/4.2.1/../../../../m68k-elf/lib/m5206e\libstdc++.a(string-inst.o)
                0x0205cc78                std::string::find_last_of(char const*, unsigned long) const
 .text._ZNKSs13find_first_ofEPKcm
                0x0205cca4       0x2c c:/nburn/gcc-m68k/bin/../lib/gcc/m68k-elf/4.2.1/../../../../m68k-elf/lib/m5206e\libstdc++.a(string-inst.o)
                0x0205cca4                std::string::find_first_of(char const*, unsigned long) const
 .text._ZNKSs5rfindEPKcm
                0x0205ccd0       0x2c c:/nburn/gcc-m68k/bin/../lib/gcc/m68k-elf/4.2.1/../../../../m68k-elf/lib/m5206e\libstdc++.a(string-inst.o)
                0x0205ccd0                std::string::rfind(char const*, unsigned long) const
 .text._ZNKSs4findEPKcm
                0x0205ccfc       0x2c c:/nburn/gcc-m68k/bin/../lib/gcc/m68k-elf/4.2.1/../../../../m68k-elf/lib/m5206e\libstdc++.a(string-inst.o)
                0x0205ccfc                std::string::find(char const*, unsigned long) const
 .text._ZNKSs4rendEv
                0x0205cd28       0x10 c:/nburn/gcc-m68k/bin/../lib/gcc/m68k-elf/4.2.1/../../../../m68k-elf/lib/m5206e\libstdc++.a(string-inst.o)
                0x0205cd28                std::string::rend() const
 .text._ZNKSs6rbeginEv
                0x0205cd38       0x1a c:/nburn/gcc-m68k/bin/../lib/gcc/m68k-elf/4.2.1/../../../../m68k-elf/lib/m5206e\libstdc++.a(string-inst.o)
                0x0205cd38                std::string::rbegin() const
 .text._ZNSs12_S_constructEmcRKSaIcE
                0x0205cd52       0x84 c:/nburn/gcc-m68k/bin/../lib/gcc/m68k-elf/4.2.1/../../../../m68k-elf/lib/m5206e\libstdc++.a(string-inst.o)
                0x0205cd52                std::string::_S_construct(unsigned long, char, std::allocator<char> const&)
 .text._ZNSsC1EmcRKSaIcE
                0x0205cdd6       0x2a c:/nburn/gcc-m68k/bin/../lib/gcc/m68k-elf/4.2.1/../../../../m68k-elf/lib/m5206e\libstdc++.a(string-inst.o)
                0x0205cdd6                std::basic_string<char, std::char_traits<char>, std::allocator<char> >::basic_string(unsigned long, char, std::allocator<char> const&)
 .text._ZNSsC2EmcRKSaIcE
                0x0205ce00       0x2a c:/nburn/gcc-m68k/bin/../lib/gcc/m68k-elf/4.2.1/../../../../m68k-elf/lib/m5206e\libstdc++.a(string-inst.o)
                0x0205ce00                std::basic_string<char, std::char_traits<char>, std::allocator<char> >::basic_string(unsigned long, char, std::allocator<char> const&)
 .text._ZNSsC1ERKSaIcE
                0x0205ce2a       0x22 c:/nburn/gcc-m68k/bin/../lib/gcc/m68k-elf/4.2.1/../../../../m68k-elf/lib/m5206e\libstdc++.a(string-inst.o)
                0x0205ce2a                std::basic_string<char, std::char_traits<char>, std::allocator<char> >::basic_string(std::allocator<char> const&)
 .text._ZNSsC2ERKSaIcE
                0x0205ce4c       0x22 c:/nburn/gcc-m68k/bin/../lib/gcc/m68k-elf/4.2.1/../../../../m68k-elf/lib/m5206e\libstdc++.a(string-inst.o)
                0x0205ce4c                std::basic_string<char, std::char_traits<char>, std::allocator<char> >::basic_string(std::allocator<char> const&)
 .text._ZNKSs7compareEmmPKcm
                0x0205ce6e       0x80 c:/nburn/gcc-m68k/bin/../lib/gcc/m68k-elf/4.2.1/../../../../m68k-elf/lib/m5206e\libstdc++.a(string-inst.o)
                0x0205ce6e                std::string::compare(unsigned long, unsigned long, char const*, unsigned long) const
 .text._ZNKSs7compareEmmPKc
                0x0205ceee       0x9a c:/nburn/gcc-m68k/bin/../lib/gcc/m68k-elf/4.2.1/../../../../m68k-elf/lib/m5206e\libstdc++.a(string-inst.o)
                0x0205ceee                std::string::compare(unsigned long, unsigned long, char const*) const
 .text._ZNKSs7compareEmmRKSsmm
                0x0205cf88       0xb0 c:/nburn/gcc-m68k/bin/../lib/gcc/m68k-elf/4.2.1/../../../../m68k-elf/lib/m5206e\libstdc++.a(string-inst.o)
                0x0205cf88                std::string::compare(unsigned long, unsigned long, std::string const&, unsigned long, unsigned long) const
 .text._ZNKSs7compareEmmRKSs
                0x0205d038       0x92 c:/nburn/gcc-m68k/bin/../lib/gcc/m68k-elf/4.2.1/../../../../m68k-elf/lib/m5206e\libstdc++.a(string-inst.o)
                0x0205d038                std::string::compare(unsigned long, unsigned long, std::string const&) const
 .text._ZNSsD1Ev
                0x0205d0ca       0x3e c:/nburn/gcc-m68k/bin/../lib/gcc/m68k-elf/4.2.1/../../../../m68k-elf/lib/m5206e\libstdc++.a(string-inst.o)
                0x0205d0ca                std::basic_string<char, std::char_traits<char>, std::allocator<char> >::~basic_string()
 .text._ZNSsD2Ev
                0x0205d108       0x3e c:/nburn/gcc-m68k/bin/../lib/gcc/m68k-elf/4.2.1/../../../../m68k-elf/lib/m5206e\libstdc++.a(string-inst.o)
                0x0205d108                std::basic_string<char, std::char_traits<char>, std::allocator<char> >::~basic_string()
 .text._ZNSs13_S_copy_charsEPcS_S_
                0x0205d146       0x2a c:/nburn/gcc-m68k/bin/../lib/gcc/m68k-elf/4.2.1/../../../../m68k-elf/lib/m5206e\libstdc++.a(string-inst.o)
                0x0205d146                std::string::_S_copy_chars(char*, char*, char*)
 .text._ZNSs4_Rep8_M_cloneERKSaIcEm
                0x0205d170       0xa0 c:/nburn/gcc-m68k/bin/../lib/gcc/m68k-elf/4.2.1/../../../../m68k-elf/lib/m5206e\libstdc++.a(string-inst.o)
                0x0205d170                std::string::_Rep::_M_clone(std::allocator<char> const&, unsigned long)
 .text._ZNSs4_Rep7_M_grabERKSaIcES2_
                0x0205d210       0x40 c:/nburn/gcc-m68k/bin/../lib/gcc/m68k-elf/4.2.1/../../../../m68k-elf/lib/m5206e\libstdc++.a(string-inst.o)
                0x0205d210                std::string::_Rep::_M_grab(std::allocator<char> const&, std::allocator<char> const&)
 .text._ZNSs7reserveEm
                0x0205d250       0x92 c:/nburn/gcc-m68k/bin/../lib/gcc/m68k-elf/4.2.1/../../../../m68k-elf/lib/m5206e\libstdc++.a(string-inst.o)
                0x0205d250                std::string::reserve(unsigned long)
 .text._ZNSs9push_backEc
                0x0205d2e2       0x5c c:/nburn/gcc-m68k/bin/../lib/gcc/m68k-elf/4.2.1/../../../../m68k-elf/lib/m5206e\libstdc++.a(string-inst.o)
                0x0205d2e2                std::string::push_back(char)
 .text._ZNSs6appendEmc
                0x0205d33e       0xbc c:/nburn/gcc-m68k/bin/../lib/gcc/m68k-elf/4.2.1/../../../../m68k-elf/lib/m5206e\libstdc++.a(string-inst.o)
                0x0205d33e                std::string::append(unsigned long, char)
 .text._ZNSspLEc
                0x0205d3fa       0x5e c:/nburn/gcc-m68k/bin/../lib/gcc/m68k-elf/4.2.1/../../../../m68k-elf/lib/m5206e\libstdc++.a(string-inst.o)
                0x0205d3fa                std::string::operator+=(char)
 .text._ZNSs6appendEPKcm
                0x0205d458       0xde c:/nburn/gcc-m68k/bin/../lib/gcc/m68k-elf/4.2.1/../../../../m68k-elf/lib/m5206e\libstdc++.a(string-inst.o)
                0x0205d458                std::string::append(char const*, unsigned long)
 .text._ZNSs6appendEPKc
                0x0205d536       0x28 c:/nburn/gcc-m68k/bin/../lib/gcc/m68k-elf/4.2.1/../../../../m68k-elf/lib/m5206e\libstdc++.a(string-inst.o)
                0x0205d536                std::string::append(char const*)
 .text._ZNSspLEPKc
                0x0205d55e       0x28 c:/nburn/gcc-m68k/bin/../lib/gcc/m68k-elf/4.2.1/../../../../m68k-elf/lib/m5206e\libstdc++.a(string-inst.o)
                0x0205d55e                std::string::operator+=(char const*)
 .text._ZNSs6appendERKSsmm
                0x0205d586       0xce c:/nburn/gcc-m68k/bin/../lib/gcc/m68k-elf/4.2.1/../../../../m68k-elf/lib/m5206e\libstdc++.a(string-inst.o)
                0x0205d586                std::string::append(std::string const&, unsigned long, unsigned long)
 .text._ZNSs6appendERKSs
                0x0205d654       0xa2 c:/nburn/gcc-m68k/bin/../lib/gcc/m68k-elf/4.2.1/../../../../m68k-elf/lib/m5206e\libstdc++.a(string-inst.o)
                0x0205d654                std::string::append(std::string const&)
 .text._ZNSspLERKSs
                0x0205d6f6        0xc c:/nburn/gcc-m68k/bin/../lib/gcc/m68k-elf/4.2.1/../../../../m68k-elf/lib/m5206e\libstdc++.a(string-inst.o)
                0x0205d6f6                std::string::operator+=(std::string const&)
 .text._ZNSs9_M_mutateEmmm
                0x0205d702      0x198 c:/nburn/gcc-m68k/bin/../lib/gcc/m68k-elf/4.2.1/../../../../m68k-elf/lib/m5206e\libstdc++.a(string-inst.o)
                0x0205d702                std::string::_M_mutate(unsigned long, unsigned long, unsigned long)
 .text._ZNSs14_M_replace_auxEmmmc
                0x0205d89a       0x8e c:/nburn/gcc-m68k/bin/../lib/gcc/m68k-elf/4.2.1/../../../../m68k-elf/lib/m5206e\libstdc++.a(string-inst.o)
                0x0205d89a                std::string::_M_replace_aux(unsigned long, unsigned long, unsigned long, char)
 .text._ZNSs7replaceEN9__gnu_cxx17__normal_iteratorIPcSsEES2_mc
                0x0205d928       0x28 c:/nburn/gcc-m68k/bin/../lib/gcc/m68k-elf/4.2.1/../../../../m68k-elf/lib/m5206e\libstdc++.a(string-inst.o)
                0x0205d928                std::string::replace(__gnu_cxx::__normal_iterator<char*, std::string>, __gnu_cxx::__normal_iterator<char*, std::string>, unsigned long, char)
 .text._ZNSs7replaceEmmmc
                0x0205d950       0x52 c:/nburn/gcc-m68k/bin/../lib/gcc/m68k-elf/4.2.1/../../../../m68k-elf/lib/m5206e\libstdc++.a(string-inst.o)
                0x0205d950                std::string::replace(unsigned long, unsigned long, unsigned long, char)
 .text._ZNSs6insertEN9__gnu_cxx17__normal_iteratorIPcSsEEc
                0x0205d9a2       0x42 c:/nburn/gcc-m68k/bin/../lib/gcc/m68k-elf/4.2.1/../../../../m68k-elf/lib/m5206e\libstdc++.a(string-inst.o)
                0x0205d9a2                std::string::insert(__gnu_cxx::__normal_iterator<char*, std::string>, char)
 .text._ZNSs6insertEmmc
                0x0205d9e4       0x3c c:/nburn/gcc-m68k/bin/../lib/gcc/m68k-elf/4.2.1/../../../../m68k-elf/lib/m5206e\libstdc++.a(string-inst.o)
                0x0205d9e4                std::string::insert(unsigned long, unsigned long, char)
 .text._ZNSs6assignEmc
                0x0205da20       0x28 c:/nburn/gcc-m68k/bin/../lib/gcc/m68k-elf/4.2.1/../../../../m68k-elf/lib/m5206e\libstdc++.a(string-inst.o)
                0x0205da20                std::string::assign(unsigned long, char)
 .text._ZNSsaSEc
                0x0205da48       0x30 c:/nburn/gcc-m68k/bin/../lib/gcc/m68k-elf/4.2.1/../../../../m68k-elf/lib/m5206e\libstdc++.a(string-inst.o)
                0x0205da48                std::string::operator=(char)
 .text._ZNSs6insertEN9__gnu_cxx17__normal_iteratorIPcSsEEmc
                0x0205da78       0x30 c:/nburn/gcc-m68k/bin/../lib/gcc/m68k-elf/4.2.1/../../../../m68k-elf/lib/m5206e\libstdc++.a(string-inst.o)
                0x0205da78                std::string::insert(__gnu_cxx::__normal_iterator<char*, std::string>, unsigned long, char)
 .text._ZNSs5eraseEN9__gnu_cxx17__normal_iteratorIPcSsEES2_
                0x0205daa8       0x40 c:/nburn/gcc-m68k/bin/../lib/gcc/m68k-elf/4.2.1/../../../../m68k-elf/lib/m5206e\libstdc++.a(string-inst.o)
                0x0205daa8                std::string::erase(__gnu_cxx::__normal_iterator<char*, std::string>, __gnu_cxx::__normal_iterator<char*, std::string>)
 .text._ZNSs5eraseEN9__gnu_cxx17__normal_iteratorIPcSsEE
                0x0205dae8       0x3a c:/nburn/gcc-m68k/bin/../lib/gcc/m68k-elf/4.2.1/../../../../m68k-elf/lib/m5206e\libstdc++.a(string-inst.o)
                0x0205dae8                std::string::erase(__gnu_cxx::__normal_iterator<char*, std::string>)
 .text._ZNSs5eraseEmm
                0x0205db22       0x5e c:/nburn/gcc-m68k/bin/../lib/gcc/m68k-elf/4.2.1/../../../../m68k-elf/lib/m5206e\libstdc++.a(string-inst.o)
                0x0205db22                std::string::erase(unsigned long, unsigned long)
 .text._ZNSs5clearEv
                0x0205db80       0x24 c:/nburn/gcc-m68k/bin/../lib/gcc/m68k-elf/4.2.1/../../../../m68k-elf/lib/m5206e\libstdc++.a(string-inst.o)
                0x0205db80                std::string::clear()
 .text._ZNSs12_M_leak_hardEv
                0x0205dba4       0x4e c:/nburn/gcc-m68k/bin/../lib/gcc/m68k-elf/4.2.1/../../../../m68k-elf/lib/m5206e\libstdc++.a(string-inst.o)
                0x0205dba4                std::string::_M_leak_hard()
 .text._ZNSs7_M_leakEv
                0x0205dbf2       0x1c c:/nburn/gcc-m68k/bin/../lib/gcc/m68k-elf/4.2.1/../../../../m68k-elf/lib/m5206e\libstdc++.a(string-inst.o)
                0x0205dbf2                std::string::_M_leak()
 .text._ZNSs2atEm
                0x0205dc0e       0x58 c:/nburn/gcc-m68k/bin/../lib/gcc/m68k-elf/4.2.1/../../../../m68k-elf/lib/m5206e\libstdc++.a(string-inst.o)
                0x0205dc0e                std::string::at(unsigned long)
 .text._ZNSsixEm
                0x0205dc66       0x3a c:/nburn/gcc-m68k/bin/../lib/gcc/m68k-elf/4.2.1/../../../../m68k-elf/lib/m5206e\libstdc++.a(string-inst.o)
                0x0205dc66                std::string::operator[](unsigned long)
 .text._ZNSs3endEv
                0x0205dca0       0x42 c:/nburn/gcc-m68k/bin/../lib/gcc/m68k-elf/4.2.1/../../../../m68k-elf/lib/m5206e\libstdc++.a(string-inst.o)
                0x0205dca0                std::string::end()
 .text._ZNSs5beginEv
                0x0205dce2       0x32 c:/nburn/gcc-m68k/bin/../lib/gcc/m68k-elf/4.2.1/../../../../m68k-elf/lib/m5206e\libstdc++.a(string-inst.o)
                0x0205dce2                std::string::begin()
 .text._ZNSs4rendEv
                0x0205dd14       0x42 c:/nburn/gcc-m68k/bin/../lib/gcc/m68k-elf/4.2.1/../../../../m68k-elf/lib/m5206e\libstdc++.a(string-inst.o)
                0x0205dd14                std::string::rend()
 .text._ZNSs6rbeginEv
                0x0205dd56       0x4a c:/nburn/gcc-m68k/bin/../lib/gcc/m68k-elf/4.2.1/../../../../m68k-elf/lib/m5206e\libstdc++.a(string-inst.o)
                0x0205dd56                std::string::rbegin()
 .text._ZNSs6resizeEmc
                0x0205dda0       0x70 c:/nburn/gcc-m68k/bin/../lib/gcc/m68k-elf/4.2.1/../../../../m68k-elf/lib/m5206e\libstdc++.a(string-inst.o)
                0x0205dda0                std::string::resize(unsigned long, char)
 .text._ZNSs6resizeEm
                0x0205de10       0x1e c:/nburn/gcc-m68k/bin/../lib/gcc/m68k-elf/4.2.1/../../../../m68k-elf/lib/m5206e\libstdc++.a(string-inst.o)
                0x0205de10                std::string::resize(unsigned long)
 .text._ZNSs13_S_copy_charsEPcPKcS1_
                0x0205de2e       0x2a c:/nburn/gcc-m68k/bin/../lib/gcc/m68k-elf/4.2.1/../../../../m68k-elf/lib/m5206e\libstdc++.a(string-inst.o)
                0x0205de2e                std::string::_S_copy_chars(char*, char const*, char const*)
 .text._ZNKSs4copyEPcmm
                0x0205de58       0x6e c:/nburn/gcc-m68k/bin/../lib/gcc/m68k-elf/4.2.1/../../../../m68k-elf/lib/m5206e\libstdc++.a(string-inst.o)
                0x0205de58                std::string::copy(char*, unsigned long, unsigned long) const
 .text._ZNSs15_M_replace_safeEmmPKcm
                0x0205dec6       0x6a c:/nburn/gcc-m68k/bin/../lib/gcc/m68k-elf/4.2.1/../../../../m68k-elf/lib/m5206e\libstdc++.a(string-inst.o)
                0x0205dec6                std::string::_M_replace_safe(unsigned long, unsigned long, char const*, unsigned long)
 .text._ZNSs6insertEmPKcm
                0x0205df30      0x172 c:/nburn/gcc-m68k/bin/../lib/gcc/m68k-elf/4.2.1/../../../../m68k-elf/lib/m5206e\libstdc++.a(string-inst.o)
                0x0205df30                std::string::insert(unsigned long, char const*, unsigned long)
 .text._ZNSs6insertEmPKc
                0x0205e0a2       0x2c c:/nburn/gcc-m68k/bin/../lib/gcc/m68k-elf/4.2.1/../../../../m68k-elf/lib/m5206e\libstdc++.a(string-inst.o)
                0x0205e0a2                std::string::insert(unsigned long, char const*)
 .text._ZNSs6insertEmRKSsmm
                0x0205e0ce       0x52 c:/nburn/gcc-m68k/bin/../lib/gcc/m68k-elf/4.2.1/../../../../m68k-elf/lib/m5206e\libstdc++.a(string-inst.o)
                0x0205e0ce                std::string::insert(unsigned long, std::string const&, unsigned long, unsigned long)
 .text._ZNSs6insertEmRKSs
                0x0205e120       0x22 c:/nburn/gcc-m68k/bin/../lib/gcc/m68k-elf/4.2.1/../../../../m68k-elf/lib/m5206e\libstdc++.a(string-inst.o)
                0x0205e120                std::string::insert(unsigned long, std::string const&)
 .text._ZNSs6assignEPKcm
                0x0205e142       0xf4 c:/nburn/gcc-m68k/bin/../lib/gcc/m68k-elf/4.2.1/../../../../m68k-elf/lib/m5206e\libstdc++.a(string-inst.o)
                0x0205e142                std::string::assign(char const*, unsigned long)
 .text._ZNSs6assignEPKc
                0x0205e236       0x28 c:/nburn/gcc-m68k/bin/../lib/gcc/m68k-elf/4.2.1/../../../../m68k-elf/lib/m5206e\libstdc++.a(string-inst.o)
                0x0205e236                std::string::assign(char const*)
 .text._ZNSs6assignERKSsmm
                0x0205e25e       0x52 c:/nburn/gcc-m68k/bin/../lib/gcc/m68k-elf/4.2.1/../../../../m68k-elf/lib/m5206e\libstdc++.a(string-inst.o)
                0x0205e25e                std::string::assign(std::string const&, unsigned long, unsigned long)
 .text._ZNSsaSEPKc
                0x0205e2b0       0x28 c:/nburn/gcc-m68k/bin/../lib/gcc/m68k-elf/4.2.1/../../../../m68k-elf/lib/m5206e\libstdc++.a(string-inst.o)
                0x0205e2b0                std::string::operator=(char const*)
 .text._ZNSs13_S_copy_charsEPcN9__gnu_cxx17__normal_iteratorIPKcSsEES4_
                0x0205e2d8       0x2a c:/nburn/gcc-m68k/bin/../lib/gcc/m68k-elf/4.2.1/../../../../m68k-elf/lib/m5206e\libstdc++.a(string-inst.o)
                0x0205e2d8                std::string::_S_copy_chars(char*, __gnu_cxx::__normal_iterator<char const*, std::string>, __gnu_cxx::__normal_iterator<char const*, std::string>)
 .text._ZNSs13_S_copy_charsEPcN9__gnu_cxx17__normal_iteratorIS_SsEES2_
                0x0205e302       0x2a c:/nburn/gcc-m68k/bin/../lib/gcc/m68k-elf/4.2.1/../../../../m68k-elf/lib/m5206e\libstdc++.a(string-inst.o)
                0x0205e302                std::string::_S_copy_chars(char*, __gnu_cxx::__normal_iterator<char*, std::string>, __gnu_cxx::__normal_iterator<char*, std::string>)
 .text._ZNSs12_S_constructIPKcEEPcT_S3_RKSaIcESt20forward_iterator_tag
                0x0205e32c       0x88 c:/nburn/gcc-m68k/bin/../lib/gcc/m68k-elf/4.2.1/../../../../m68k-elf/lib/m5206e\libstdc++.a(string-inst.o)
                0x0205e32c                char* std::string::_S_construct<char const*>(char const*, char const*, std::allocator<char> const&, std::forward_iterator_tag)
 .text._ZNSsC2IPKcEET_S2_RKSaIcE
                0x0205e3b4       0x28 c:/nburn/gcc-m68k/bin/../lib/gcc/m68k-elf/4.2.1/../../../../m68k-elf/lib/m5206e\libstdc++.a(string-inst.o)
                0x0205e3b4                std::basic_string<char, std::char_traits<char>, std::allocator<char> >::basic_string<char const*>(char const*, char const*, std::allocator<char> const&)
 .text._ZNSsC1EPKcRKSaIcE
                0x0205e3dc       0x62 c:/nburn/gcc-m68k/bin/../lib/gcc/m68k-elf/4.2.1/../../../../m68k-elf/lib/m5206e\libstdc++.a(string-inst.o)
                0x0205e3dc                std::basic_string<char, std::char_traits<char>, std::allocator<char> >::basic_string(char const*, std::allocator<char> const&)
 .text._ZNSsC1EPKcmRKSaIcE
                0x0205e43e       0x2e c:/nburn/gcc-m68k/bin/../lib/gcc/m68k-elf/4.2.1/../../../../m68k-elf/lib/m5206e\libstdc++.a(string-inst.o)
                0x0205e43e                std::basic_string<char, std::char_traits<char>, std::allocator<char> >::basic_string(char const*, unsigned long, std::allocator<char> const&)
 .text._ZNSsC2EPKcmRKSaIcE
                0x0205e46c       0x2e c:/nburn/gcc-m68k/bin/../lib/gcc/m68k-elf/4.2.1/../../../../m68k-elf/lib/m5206e\libstdc++.a(string-inst.o)
                0x0205e46c                std::basic_string<char, std::char_traits<char>, std::allocator<char> >::basic_string(char const*, unsigned long, std::allocator<char> const&)
 .text._ZNSsC2EPKcRKSaIcE
                0x0205e49a       0x62 c:/nburn/gcc-m68k/bin/../lib/gcc/m68k-elf/4.2.1/../../../../m68k-elf/lib/m5206e\libstdc++.a(string-inst.o)
                0x0205e49a                std::basic_string<char, std::char_traits<char>, std::allocator<char> >::basic_string(char const*, std::allocator<char> const&)
 .text._ZNSsC1IPKcEET_S2_RKSaIcE
                0x0205e4fc       0x28 c:/nburn/gcc-m68k/bin/../lib/gcc/m68k-elf/4.2.1/../../../../m68k-elf/lib/m5206e\libstdc++.a(string-inst.o)
                0x0205e4fc                std::basic_string<char, std::char_traits<char>, std::allocator<char> >::basic_string<char const*>(char const*, char const*, std::allocator<char> const&)
 .text._ZNSs12_S_constructIPcEES0_T_S1_RKSaIcESt20forward_iterator_tag
                0x0205e524       0x88 c:/nburn/gcc-m68k/bin/../lib/gcc/m68k-elf/4.2.1/../../../../m68k-elf/lib/m5206e\libstdc++.a(string-inst.o)
                0x0205e524                char* std::string::_S_construct<char*>(char*, char*, std::allocator<char> const&, std::forward_iterator_tag)
 .text._ZNSsC2ERKSsmm
                0x0205e5ac       0x66 c:/nburn/gcc-m68k/bin/../lib/gcc/m68k-elf/4.2.1/../../../../m68k-elf/lib/m5206e\libstdc++.a(string-inst.o)
                0x0205e5ac                std::basic_string<char, std::char_traits<char>, std::allocator<char> >::basic_string(std::string const&, unsigned long, unsigned long)
 .text._ZNSsC1IPcEET_S1_RKSaIcE
                0x0205e612       0x28 c:/nburn/gcc-m68k/bin/../lib/gcc/m68k-elf/4.2.1/../../../../m68k-elf/lib/m5206e\libstdc++.a(string-inst.o)
                0x0205e612                std::basic_string<char, std::char_traits<char>, std::allocator<char> >::basic_string<char*>(char*, char*, std::allocator<char> const&)
 .text._ZNSsC2IPcEET_S1_RKSaIcE
                0x0205e63a       0x28 c:/nburn/gcc-m68k/bin/../lib/gcc/m68k-elf/4.2.1/../../../../m68k-elf/lib/m5206e\libstdc++.a(string-inst.o)
                0x0205e63a                std::basic_string<char, std::char_traits<char>, std::allocator<char> >::basic_string<char*>(char*, char*, std::allocator<char> const&)
 .text._ZNSsC1ERKSsmmRKSaIcE
                0x0205e662       0x82 c:/nburn/gcc-m68k/bin/../lib/gcc/m68k-elf/4.2.1/../../../../m68k-elf/lib/m5206e\libstdc++.a(string-inst.o)
                0x0205e662                std::basic_string<char, std::char_traits<char>, std::allocator<char> >::basic_string(std::string const&, unsigned long, unsigned long, std::allocator<char> const&)
 .text._ZNSsC2ERKSsmmRKSaIcE
                0x0205e6e4       0x82 c:/nburn/gcc-m68k/bin/../lib/gcc/m68k-elf/4.2.1/../../../../m68k-elf/lib/m5206e\libstdc++.a(string-inst.o)
                0x0205e6e4                std::basic_string<char, std::char_traits<char>, std::allocator<char> >::basic_string(std::string const&, unsigned long, unsigned long, std::allocator<char> const&)
 .text._ZNSsC1ERKSsmm
                0x0205e766       0x66 c:/nburn/gcc-m68k/bin/../lib/gcc/m68k-elf/4.2.1/../../../../m68k-elf/lib/m5206e\libstdc++.a(string-inst.o)
                0x0205e766                std::basic_string<char, std::char_traits<char>, std::allocator<char> >::basic_string(std::string const&, unsigned long, unsigned long)
 .text._ZNKSs6substrEmm
                0x0205e7cc       0x3e c:/nburn/gcc-m68k/bin/../lib/gcc/m68k-elf/4.2.1/../../../../m68k-elf/lib/m5206e\libstdc++.a(string-inst.o)
                0x0205e7cc                std::string::substr(unsigned long, unsigned long) const
 .text._ZNSs12_S_constructIN9__gnu_cxx17__normal_iteratorIPcSsEEEES2_T_S4_RKSaIcESt20forward_iterator_tag
                0x0205e80a       0x84 c:/nburn/gcc-m68k/bin/../lib/gcc/m68k-elf/4.2.1/../../../../m68k-elf/lib/m5206e\libstdc++.a(string-inst.o)
                0x0205e80a                char* std::string::_S_construct<__gnu_cxx::__normal_iterator<char*, std::string> >(__gnu_cxx::__normal_iterator<char*, std::string>, __gnu_cxx::__normal_iterator<char*, std::string>, std::allocator<char> const&, std::forward_iterator_tag)
 .text._ZNSsC1IN9__gnu_cxx17__normal_iteratorIPcSsEEEET_S4_RKSaIcE
                0x0205e88e       0x28 c:/nburn/gcc-m68k/bin/../lib/gcc/m68k-elf/4.2.1/../../../../m68k-elf/lib/m5206e\libstdc++.a(string-inst.o)
                0x0205e88e                std::basic_string<char, std::char_traits<char>, std::allocator<char> >::basic_string<__gnu_cxx::__normal_iterator<char*, std::string> >(__gnu_cxx::__normal_iterator<char*, std::string>, __gnu_cxx::__normal_iterator<char*, std::string>, std::allocator<char> const&)
 .text._ZNSsC2IN9__gnu_cxx17__normal_iteratorIPcSsEEEET_S4_RKSaIcE
                0x0205e8b6       0x28 c:/nburn/gcc-m68k/bin/../lib/gcc/m68k-elf/4.2.1/../../../../m68k-elf/lib/m5206e\libstdc++.a(string-inst.o)
                0x0205e8b6                std::basic_string<char, std::char_traits<char>, std::allocator<char> >::basic_string<__gnu_cxx::__normal_iterator<char*, std::string> >(__gnu_cxx::__normal_iterator<char*, std::string>, __gnu_cxx::__normal_iterator<char*, std::string>, std::allocator<char> const&)
 .text._ZNSsC1ERKSs
                0x0205e8de       0x66 c:/nburn/gcc-m68k/bin/../lib/gcc/m68k-elf/4.2.1/../../../../m68k-elf/lib/m5206e\libstdc++.a(string-inst.o)
                0x0205e8de                std::basic_string<char, std::char_traits<char>, std::allocator<char> >::basic_string(std::string const&)
 .text._ZNSsC2ERKSs
                0x0205e944       0x66 c:/nburn/gcc-m68k/bin/../lib/gcc/m68k-elf/4.2.1/../../../../m68k-elf/lib/m5206e\libstdc++.a(string-inst.o)
                0x0205e944                std::basic_string<char, std::char_traits<char>, std::allocator<char> >::basic_string(std::string const&)
 .text._ZNSs6assignERKSs
                0x0205e9aa       0xb2 c:/nburn/gcc-m68k/bin/../lib/gcc/m68k-elf/4.2.1/../../../../m68k-elf/lib/m5206e\libstdc++.a(string-inst.o)
                0x0205e9aa                std::string::assign(std::string const&)
 .text._ZNSsaSERKSs
                0x0205ea5c        0xc c:/nburn/gcc-m68k/bin/../lib/gcc/m68k-elf/4.2.1/../../../../m68k-elf/lib/m5206e\libstdc++.a(string-inst.o)
                0x0205ea5c                std::string::operator=(std::string const&)
 .text._ZStplIcSt11char_traitsIcESaIcEESbIT_T0_T1_ERKS6_S8_
                0x0205ea68       0x6e c:/nburn/gcc-m68k/bin/../lib/gcc/m68k-elf/4.2.1/../../../../m68k-elf/lib/m5206e\libstdc++.a(string-inst.o)
                0x0205ea68                std::basic_string<char, std::char_traits<char>, std::allocator<char> > std::operator+<char, std::char_traits<char>, std::allocator<char> >(std::basic_string<char, std::char_traits<char>, std::allocator<char> > const&, std::basic_string<char, std::char_traits<char>, std::allocator<char> > const&)
 .text._ZStplIcSt11char_traitsIcESaIcEESbIT_T0_T1_ES3_RKS6_
                0x0205ead6       0x92 c:/nburn/gcc-m68k/bin/../lib/gcc/m68k-elf/4.2.1/../../../../m68k-elf/lib/m5206e\libstdc++.a(string-inst.o)
                0x0205ead6                std::basic_string<char, std::char_traits<char>, std::allocator<char> > std::operator+<char, std::char_traits<char>, std::allocator<char> >(char, std::basic_string<char, std::char_traits<char>, std::allocator<char> > const&)
 .text._ZStplIcSt11char_traitsIcESaIcEESbIT_T0_T1_EPKS3_RKS6_
                0x0205eb68       0x96 c:/nburn/gcc-m68k/bin/../lib/gcc/m68k-elf/4.2.1/../../../../m68k-elf/lib/m5206e\libstdc++.a(string-inst.o)
                0x0205eb68                std::basic_string<char, std::char_traits<char>, std::allocator<char> > std::operator+<char, std::char_traits<char>, std::allocator<char> >(char const*, std::basic_string<char, std::char_traits<char>, std::allocator<char> > const&)
 .text._ZNSs7replaceEmmPKcm
                0x0205ebfe      0x1c8 c:/nburn/gcc-m68k/bin/../lib/gcc/m68k-elf/4.2.1/../../../../m68k-elf/lib/m5206e\libstdc++.a(string-inst.o)
                0x0205ebfe                std::string::replace(unsigned long, unsigned long, char const*, unsigned long)
 .text._ZNSs7replaceEN9__gnu_cxx17__normal_iteratorIPcSsEES2_NS0_IPKcSsEES5_
                0x0205edc6       0x26 c:/nburn/gcc-m68k/bin/../lib/gcc/m68k-elf/4.2.1/../../../../m68k-elf/lib/m5206e\libstdc++.a(string-inst.o)
                0x0205edc6                std::string::replace(__gnu_cxx::__normal_iterator<char*, std::string>, __gnu_cxx::__normal_iterator<char*, std::string>, __gnu_cxx::__normal_iterator<char const*, std::string>, __gnu_cxx::__normal_iterator<char const*, std::string>)
 .text._ZNSs7replaceEN9__gnu_cxx17__normal_iteratorIPcSsEES2_S2_S2_
                0x0205edec       0x26 c:/nburn/gcc-m68k/bin/../lib/gcc/m68k-elf/4.2.1/../../../../m68k-elf/lib/m5206e\libstdc++.a(string-inst.o)
                0x0205edec                std::string::replace(__gnu_cxx::__normal_iterator<char*, std::string>, __gnu_cxx::__normal_iterator<char*, std::string>, __gnu_cxx::__normal_iterator<char*, std::string>, __gnu_cxx::__normal_iterator<char*, std::string>)
 .text._ZNSs7replaceEN9__gnu_cxx17__normal_iteratorIPcSsEES2_PKcS4_
                0x0205ee12       0x26 c:/nburn/gcc-m68k/bin/../lib/gcc/m68k-elf/4.2.1/../../../../m68k-elf/lib/m5206e\libstdc++.a(string-inst.o)
                0x0205ee12                std::string::replace(__gnu_cxx::__normal_iterator<char*, std::string>, __gnu_cxx::__normal_iterator<char*, std::string>, char const*, char const*)
 .text._ZNSs7replaceEN9__gnu_cxx17__normal_iteratorIPcSsEES2_S1_S1_
                0x0205ee38       0x26 c:/nburn/gcc-m68k/bin/../lib/gcc/m68k-elf/4.2.1/../../../../m68k-elf/lib/m5206e\libstdc++.a(string-inst.o)
                0x0205ee38                std::string::replace(__gnu_cxx::__normal_iterator<char*, std::string>, __gnu_cxx::__normal_iterator<char*, std::string>, char*, char*)
 .text._ZNSs7replaceEN9__gnu_cxx17__normal_iteratorIPcSsEES2_PKcm
                0x0205ee5e       0x1e c:/nburn/gcc-m68k/bin/../lib/gcc/m68k-elf/4.2.1/../../../../m68k-elf/lib/m5206e\libstdc++.a(string-inst.o)
                0x0205ee5e                std::string::replace(__gnu_cxx::__normal_iterator<char*, std::string>, __gnu_cxx::__normal_iterator<char*, std::string>, char const*, unsigned long)
 .text._ZNSs7replaceEmmPKc
                0x0205ee7c       0x30 c:/nburn/gcc-m68k/bin/../lib/gcc/m68k-elf/4.2.1/../../../../m68k-elf/lib/m5206e\libstdc++.a(string-inst.o)
                0x0205ee7c                std::string::replace(unsigned long, unsigned long, char const*)
 .text._ZNSs7replaceEmmRKSsmm
                0x0205eeac       0x52 c:/nburn/gcc-m68k/bin/../lib/gcc/m68k-elf/4.2.1/../../../../m68k-elf/lib/m5206e\libstdc++.a(string-inst.o)
                0x0205eeac                std::string::replace(unsigned long, unsigned long, std::string const&, unsigned long, unsigned long)
 .text._ZNSs7replaceEmmRKSs
                0x0205eefe       0x26 c:/nburn/gcc-m68k/bin/../lib/gcc/m68k-elf/4.2.1/../../../../m68k-elf/lib/m5206e\libstdc++.a(string-inst.o)
                0x0205eefe                std::string::replace(unsigned long, unsigned long, std::string const&)
 .text._ZNSs7replaceEN9__gnu_cxx17__normal_iteratorIPcSsEES2_PKc
                0x0205ef24       0x40 c:/nburn/gcc-m68k/bin/../lib/gcc/m68k-elf/4.2.1/../../../../m68k-elf/lib/m5206e\libstdc++.a(string-inst.o)
                0x0205ef24                std::string::replace(__gnu_cxx::__normal_iterator<char*, std::string>, __gnu_cxx::__normal_iterator<char*, std::string>, char const*)
 .text._ZNSs7replaceEN9__gnu_cxx17__normal_iteratorIPcSsEES2_RKSs
                0x0205ef64       0x30 c:/nburn/gcc-m68k/bin/../lib/gcc/m68k-elf/4.2.1/../../../../m68k-elf/lib/m5206e\libstdc++.a(string-inst.o)
                0x0205ef64                std::string::replace(__gnu_cxx::__normal_iterator<char*, std::string>, __gnu_cxx::__normal_iterator<char*, std::string>, std::string const&)
 .text._ZNSs4swapERSs
                0x0205ef94       0x40 c:/nburn/gcc-m68k/bin/../lib/gcc/m68k-elf/4.2.1/../../../../m68k-elf/lib/m5206e\libstdc++.a(string-inst.o)
                0x0205ef94                std::string::swap(std::string&)
 .text.__cxa_rethrow
                0x0205efd4       0x7c c:/nburn/gcc-m68k/bin/../lib/gcc/m68k-elf/4.2.1/../../../../m68k-elf/lib/m5206e\libstdc++.a(eh_throw.o)
                0x0205efd4                __cxa_rethrow
 .text.__cxa_throw
                0x0205f050       0x6c c:/nburn/gcc-m68k/bin/../lib/gcc/m68k-elf/4.2.1/../../../../m68k-elf/lib/m5206e\libstdc++.a(eh_throw.o)
                0x0205f050                __cxa_throw
 .text._Z23__gxx_exception_cleanup19_Unwind_Reason_CodeP17_Unwind_Exception
                0x0205f0bc       0x62 c:/nburn/gcc-m68k/bin/../lib/gcc/m68k-elf/4.2.1/../../../../m68k-elf/lib/m5206e\libstdc++.a(eh_throw.o)
 .text._ZSt15set_new_handlerPFvvE
                0x0205f11e       0x18 c:/nburn/gcc-m68k/bin/../lib/gcc/m68k-elf/4.2.1/../../../../m68k-elf/lib/m5206e\libstdc++.a(new_handler.o)
                0x0205f11e                std::set_new_handler(void (*)())
 .text._ZNKSt9bad_alloc4whatEv
                0x0205f136        0xe c:/nburn/gcc-m68k/bin/../lib/gcc/m68k-elf/4.2.1/../../../../m68k-elf/lib/m5206e\libstdc++.a(new_handler.o)
                0x0205f136                std::bad_alloc::what() const
 .text._ZNSt9bad_allocD0Ev
                0x0205f144       0x2a c:/nburn/gcc-m68k/bin/../lib/gcc/m68k-elf/4.2.1/../../../../m68k-elf/lib/m5206e\libstdc++.a(new_handler.o)
                0x0205f144                std::bad_alloc::~bad_alloc()
 .text._ZNSt9bad_allocD1Ev
                0x0205f16e       0x16 c:/nburn/gcc-m68k/bin/../lib/gcc/m68k-elf/4.2.1/../../../../m68k-elf/lib/m5206e\libstdc++.a(new_handler.o)
                0x0205f16e                std::bad_alloc::~bad_alloc()
 .text._ZNSt9bad_allocD2Ev
                0x0205f184       0x16 c:/nburn/gcc-m68k/bin/../lib/gcc/m68k-elf/4.2.1/../../../../m68k-elf/lib/m5206e\libstdc++.a(new_handler.o)
                0x0205f184                std::bad_alloc::~bad_alloc()
 .text.__cxa_get_globals_fast
                0x0205f19a        0xe c:/nburn/gcc-m68k/bin/../lib/gcc/m68k-elf/4.2.1/../../../../m68k-elf/lib/m5206e\libstdc++.a(eh_globals.o)
                0x0205f19a                __cxa_get_globals_fast
 .text.__cxa_get_globals
                0x0205f1a8        0xe c:/nburn/gcc-m68k/bin/../lib/gcc/m68k-elf/4.2.1/../../../../m68k-elf/lib/m5206e\libstdc++.a(eh_globals.o)
                0x0205f1a8                __cxa_get_globals
 .text._ZNKSt9exception4whatEv
                0x0205f1b6        0xe c:/nburn/gcc-m68k/bin/../lib/gcc/m68k-elf/4.2.1/../../../../m68k-elf/lib/m5206e\libstdc++.a(eh_exception.o)
                0x0205f1b6                std::exception::what() const
 .text._ZNKSt13bad_exception4whatEv
                0x0205f1c4        0xe c:/nburn/gcc-m68k/bin/../lib/gcc/m68k-elf/4.2.1/../../../../m68k-elf/lib/m5206e\libstdc++.a(eh_exception.o)
                0x0205f1c4                std::bad_exception::what() const
 .text._ZNSt9exceptionD0Ev
                0x0205f1d2       0x16 c:/nburn/gcc-m68k/bin/../lib/gcc/m68k-elf/4.2.1/../../../../m68k-elf/lib/m5206e\libstdc++.a(eh_exception.o)
                0x0205f1d2                std::exception::~exception()
 .text._ZNSt9exceptionD1Ev
                0x0205f1e8       0x12 c:/nburn/gcc-m68k/bin/../lib/gcc/m68k-elf/4.2.1/../../../../m68k-elf/lib/m5206e\libstdc++.a(eh_exception.o)
                0x0205f1e8                std::exception::~exception()
 .text._ZNSt9exceptionD2Ev
                0x0205f1fa       0x12 c:/nburn/gcc-m68k/bin/../lib/gcc/m68k-elf/4.2.1/../../../../m68k-elf/lib/m5206e\libstdc++.a(eh_exception.o)
                0x0205f1fa                std::exception::~exception()
 .text._ZNSt13bad_exceptionD0Ev
                0x0205f20c       0x2a c:/nburn/gcc-m68k/bin/../lib/gcc/m68k-elf/4.2.1/../../../../m68k-elf/lib/m5206e\libstdc++.a(eh_exception.o)
                0x0205f20c                std::bad_exception::~bad_exception()
 .text._ZNSt13bad_exceptionD1Ev
                0x0205f236       0x16 c:/nburn/gcc-m68k/bin/../lib/gcc/m68k-elf/4.2.1/../../../../m68k-elf/lib/m5206e\libstdc++.a(eh_exception.o)
                0x0205f236                std::bad_exception::~bad_exception()
 .text._ZNSt13bad_exceptionD2Ev
                0x0205f24c       0x16 c:/nburn/gcc-m68k/bin/../lib/gcc/m68k-elf/4.2.1/../../../../m68k-elf/lib/m5206e\libstdc++.a(eh_exception.o)
                0x0205f24c                std::bad_exception::~bad_exception()
 .text.__cxa_guard_release
                0x0205f262       0x1a c:/nburn/gcc-m68k/bin/../lib/gcc/m68k-elf/4.2.1/../../../../m68k-elf/lib/m5206e\libstdc++.a(guard.o)
                0x0205f262                __cxa_guard_release
 .text.__cxa_guard_acquire
                0x0205f27c       0x4c c:/nburn/gcc-m68k/bin/../lib/gcc/m68k-elf/4.2.1/../../../../m68k-elf/lib/m5206e\libstdc++.a(guard.o)
                0x0205f27c                __cxa_guard_acquire
 .text._ZN9__gnu_cxx20recursive_init_errorD0Ev
                0x0205f2c8       0x2a c:/nburn/gcc-m68k/bin/../lib/gcc/m68k-elf/4.2.1/../../../../m68k-elf/lib/m5206e\libstdc++.a(guard.o)
                0x0205f2c8                __gnu_cxx::recursive_init_error::~recursive_init_error()
 .text._ZN9__gnu_cxx20recursive_init_errorD1Ev
                0x0205f2f2       0x16 c:/nburn/gcc-m68k/bin/../lib/gcc/m68k-elf/4.2.1/../../../../m68k-elf/lib/m5206e\libstdc++.a(guard.o)
                0x0205f2f2                __gnu_cxx::recursive_init_error::~recursive_init_error()
 .text._ZN9__gnu_cxx20recursive_init_errorD2Ev
                0x0205f308       0x16 c:/nburn/gcc-m68k/bin/../lib/gcc/m68k-elf/4.2.1/../../../../m68k-elf/lib/m5206e\libstdc++.a(guard.o)
                0x0205f308                __gnu_cxx::recursive_init_error::~recursive_init_error()
 .text.__cxa_guard_abort
                0x0205f31e       0x14 c:/nburn/gcc-m68k/bin/../lib/gcc/m68k-elf/4.2.1/../../../../m68k-elf/lib/m5206e\libstdc++.a(guard.o)
                0x0205f31e                __cxa_guard_abort
 .text.__cxa_get_exception_ptr
                0x0205f332       0x10 c:/nburn/gcc-m68k/bin/../lib/gcc/m68k-elf/4.2.1/../../../../m68k-elf/lib/m5206e\libstdc++.a(eh_catch.o)
                0x0205f332                __cxa_get_exception_ptr
 .text._ZSt18uncaught_exceptionv
                0x0205f342       0x1a c:/nburn/gcc-m68k/bin/../lib/gcc/m68k-elf/4.2.1/../../../../m68k-elf/lib/m5206e\libstdc++.a(eh_catch.o)
                0x0205f342                std::uncaught_exception()
 .text.__cxa_end_catch
                0x0205f35c       0x9a c:/nburn/gcc-m68k/bin/../lib/gcc/m68k-elf/4.2.1/../../../../m68k-elf/lib/m5206e\libstdc++.a(eh_catch.o)
                0x0205f35c                __cxa_end_catch
 .text.__cxa_begin_catch
                0x0205f3f6       0x90 c:/nburn/gcc-m68k/bin/../lib/gcc/m68k-elf/4.2.1/../../../../m68k-elf/lib/m5206e\libstdc++.a(eh_catch.o)
                0x0205f3f6                __cxa_begin_catch
 .text._ZSt13set_terminatePFvvE
                0x0205f486       0x18 c:/nburn/gcc-m68k/bin/../lib/gcc/m68k-elf/4.2.1/../../../../m68k-elf/lib/m5206e\libstdc++.a(eh_terminate.o)
                0x0205f486                std::set_terminate(void (*)())
 .text._ZSt14set_unexpectedPFvvE
                0x0205f49e       0x18 c:/nburn/gcc-m68k/bin/../lib/gcc/m68k-elf/4.2.1/../../../../m68k-elf/lib/m5206e\libstdc++.a(eh_terminate.o)
                0x0205f49e                std::set_unexpected(void (*)())
 .text._ZN10__cxxabiv111__terminateEPFvvE
                0x0205f4b6       0x32 c:/nburn/gcc-m68k/bin/../lib/gcc/m68k-elf/4.2.1/../../../../m68k-elf/lib/m5206e\libstdc++.a(eh_terminate.o)
                0x0205f4b6                __cxxabiv1::__terminate(void (*)())
 .text._ZSt9terminatev
                0x0205f4e8       0x10 c:/nburn/gcc-m68k/bin/../lib/gcc/m68k-elf/4.2.1/../../../../m68k-elf/lib/m5206e\libstdc++.a(eh_terminate.o)
                0x0205f4e8                std::terminate()
 .text._ZN10__cxxabiv112__unexpectedEPFvvE
                0x0205f4f8       0x10 c:/nburn/gcc-m68k/bin/../lib/gcc/m68k-elf/4.2.1/../../../../m68k-elf/lib/m5206e\libstdc++.a(eh_terminate.o)
                0x0205f4f8                __cxxabiv1::__unexpected(void (*)())
 .text._ZSt10unexpectedv
                0x0205f508       0x10 c:/nburn/gcc-m68k/bin/../lib/gcc/m68k-elf/4.2.1/../../../../m68k-elf/lib/m5206e\libstdc++.a(eh_terminate.o)
                0x0205f508                std::unexpected()
 .text._ZNKSt10bad_typeid4whatEv
                0x0205f518        0xe c:/nburn/gcc-m68k/bin/../lib/gcc/m68k-elf/4.2.1/../../../../m68k-elf/lib/m5206e\libstdc++.a(bad_typeid.o)
                0x0205f518                std::bad_typeid::what() const
 .text._ZNSt10bad_typeidD0Ev
                0x0205f526       0x2a c:/nburn/gcc-m68k/bin/../lib/gcc/m68k-elf/4.2.1/../../../../m68k-elf/lib/m5206e\libstdc++.a(bad_typeid.o)
                0x0205f526                std::bad_typeid::~bad_typeid()
 .text._ZNSt10bad_typeidD1Ev
                0x0205f550       0x16 c:/nburn/gcc-m68k/bin/../lib/gcc/m68k-elf/4.2.1/../../../../m68k-elf/lib/m5206e\libstdc++.a(bad_typeid.o)
                0x0205f550                std::bad_typeid::~bad_typeid()
 .text._ZNSt10bad_typeidD2Ev
                0x0205f566       0x16 c:/nburn/gcc-m68k/bin/../lib/gcc/m68k-elf/4.2.1/../../../../m68k-elf/lib/m5206e\libstdc++.a(bad_typeid.o)
                0x0205f566                std::bad_typeid::~bad_typeid()
 .text._ZdlPv   0x0205f57c       0x16 c:/nburn/gcc-m68k/bin/../lib/gcc/m68k-elf/4.2.1/../../../../m68k-elf/lib/m5206e\libstdc++.a(del_op.o)
                0x0205f57c                operator delete(void*)
 .text._ZNK10__cxxabiv117__class_type_info11__do_upcastEPKS0_PPv
                0x0205f592       0x68 c:/nburn/gcc-m68k/bin/../lib/gcc/m68k-elf/4.2.1/../../../../m68k-elf/lib/m5206e\libstdc++.a(class_type_info.o)
                0x0205f592                __cxxabiv1::__class_type_info::__do_upcast(__cxxabiv1::__class_type_info const*, void**) const
 .text._ZNK10__cxxabiv117__class_type_info20__do_find_public_srcElPKvPKS0_S2_
                0x0205f5fa       0x1a c:/nburn/gcc-m68k/bin/../lib/gcc/m68k-elf/4.2.1/../../../../m68k-elf/lib/m5206e\libstdc++.a(class_type_info.o)
                0x0205f5fa                __cxxabiv1::__class_type_info::__do_find_public_src(long, void const*, __cxxabiv1::__class_type_info const*, void const*) const
 .text._ZN10__cxxabiv117__class_type_infoD0Ev
                0x0205f614       0x2a c:/nburn/gcc-m68k/bin/../lib/gcc/m68k-elf/4.2.1/../../../../m68k-elf/lib/m5206e\libstdc++.a(class_type_info.o)
                0x0205f614                __cxxabiv1::__class_type_info::~__class_type_info()
 .text._ZN10__cxxabiv117__class_type_infoD1Ev
                0x0205f63e       0x16 c:/nburn/gcc-m68k/bin/../lib/gcc/m68k-elf/4.2.1/../../../../m68k-elf/lib/m5206e\libstdc++.a(class_type_info.o)
                0x0205f63e                __cxxabiv1::__class_type_info::~__class_type_info()
 .text._ZN10__cxxabiv117__class_type_infoD2Ev
                0x0205f654       0x16 c:/nburn/gcc-m68k/bin/../lib/gcc/m68k-elf/4.2.1/../../../../m68k-elf/lib/m5206e\libstdc++.a(class_type_info.o)
                0x0205f654                __cxxabiv1::__class_type_info::~__class_type_info()
 .text._ZNK10__cxxabiv117__class_type_info10__do_catchEPKSt9type_infoPPvj
                0x0205f66a       0x58 c:/nburn/gcc-m68k/bin/../lib/gcc/m68k-elf/4.2.1/../../../../m68k-elf/lib/m5206e\libstdc++.a(class_type_info.o)
                0x0205f66a                __cxxabiv1::__class_type_info::__do_catch(std::type_info const*, void**, unsigned int) const
 .text._ZNK10__cxxabiv117__class_type_info11__do_upcastEPKS0_PKvRNS0_15__upcast_resultE
                0x0205f6c2       0x40 c:/nburn/gcc-m68k/bin/../lib/gcc/m68k-elf/4.2.1/../../../../m68k-elf/lib/m5206e\libstdc++.a(class_type_info.o)
                0x0205f6c2                __cxxabiv1::__class_type_info::__do_upcast(__cxxabiv1::__class_type_info const*, void const*, __cxxabiv1::__class_type_info::__upcast_result&) const
 .text._ZNK10__cxxabiv117__class_type_info12__do_dyncastElNS0_10__sub_kindEPKS0_PKvS3_S5_RNS0_16__dyncast_resultE
                0x0205f702       0x56 c:/nburn/gcc-m68k/bin/../lib/gcc/m68k-elf/4.2.1/../../../../m68k-elf/lib/m5206e\libstdc++.a(class_type_info.o)
                0x0205f702                __cxxabiv1::__class_type_info::__do_dyncast(long, __cxxabiv1::__class_type_info::__sub_kind, __cxxabiv1::__class_type_info const*, void const*, __cxxabiv1::__class_type_info const*, void const*, __cxxabiv1::__class_type_info::__dyncast_result&) const
 .text._Z12read_uleb128PKhPj
                0x0205f758       0x30 c:/nburn/gcc-m68k/bin/../lib/gcc/m68k-elf/4.2.1/../../../../m68k-elf/lib/m5206e\libstdc++.a(eh_personality.o)
 .text._Z12read_sleb128PKhPi
                0x0205f788       0x46 c:/nburn/gcc-m68k/bin/../lib/gcc/m68k-elf/4.2.1/../../../../m68k-elf/lib/m5206e\libstdc++.a(eh_personality.o)
 .text._Z16get_adjusted_ptrPKSt9type_infoS1_PPv
                0x0205f7ce       0x6a c:/nburn/gcc-m68k/bin/../lib/gcc/m68k-elf/4.2.1/../../../../m68k-elf/lib/m5206e\libstdc++.a(eh_personality.o)
 .text._Z28read_encoded_value_with_basehjPKhPj
                0x0205f838      0x12a c:/nburn/gcc-m68k/bin/../lib/gcc/m68k-elf/4.2.1/../../../../m68k-elf/lib/m5206e\libstdc++.a(eh_personality.o)
 .text._Z21base_of_encoded_valuehP15_Unwind_Context
                0x0205f962       0x8c c:/nburn/gcc-m68k/bin/../lib/gcc/m68k-elf/4.2.1/../../../../m68k-elf/lib/m5206e\libstdc++.a(eh_personality.o)
 .text._Z17parse_lsda_headerP15_Unwind_ContextPKhP16lsda_header_info
                0x0205f9ee       0xec c:/nburn/gcc-m68k/bin/../lib/gcc/m68k-elf/4.2.1/../../../../m68k-elf/lib/m5206e\libstdc++.a(eh_personality.o)
 .text._Z15get_ttype_entryP16lsda_header_infoj
                0x0205fada       0xe2 c:/nburn/gcc-m68k/bin/../lib/gcc/m68k-elf/4.2.1/../../../../m68k-elf/lib/m5206e\libstdc++.a(eh_personality.o)
 .text._Z20check_exception_specP16lsda_header_infoPKSt9type_infoPvi
                0x0205fbbc       0x70 c:/nburn/gcc-m68k/bin/../lib/gcc/m68k-elf/4.2.1/../../../../m68k-elf/lib/m5206e\libstdc++.a(eh_personality.o)
 .text.__cxa_call_unexpected
                0x0205fc2c       0xde c:/nburn/gcc-m68k/bin/../lib/gcc/m68k-elf/4.2.1/../../../../m68k-elf/lib/m5206e\libstdc++.a(eh_personality.o)
                0x0205fc2c                __cxa_call_unexpected
 .text.__gxx_personality_v0
                0x0205fd0a      0x440 c:/nburn/gcc-m68k/bin/../lib/gcc/m68k-elf/4.2.1/../../../../m68k-elf/lib/m5206e\libstdc++.a(eh_personality.o)
                0x0205fd0a                __gxx_personality_v0
 .text.__cxa_pure_virtual
                0x0206014a       0x24 c:/nburn/gcc-m68k/bin/../lib/gcc/m68k-elf/4.2.1/../../../../m68k-elf/lib/m5206e\libstdc++.a(pure.o)
                0x0206014a                __cxa_pure_virtual
 .text._Z41__static_initialization_and_destruction_0ii
                0x0206016e        0x8 c:/nburn/gcc-m68k/bin/../lib/gcc/m68k-elf/4.2.1/../../../../m68k-elf/lib/m5206e\libstdc++.a(eh_alloc.o)
 .text._GLOBAL__I___cxa_allocate_exception
                0x02060176       0x1a c:/nburn/gcc-m68k/bin/../lib/gcc/m68k-elf/4.2.1/../../../../m68k-elf/lib/m5206e\libstdc++.a(eh_alloc.o)
 .text.__cxa_allocate_exception
                0x02060190       0xa4 c:/nburn/gcc-m68k/bin/../lib/gcc/m68k-elf/4.2.1/../../../../m68k-elf/lib/m5206e\libstdc++.a(eh_alloc.o)
                0x02060190                __cxa_allocate_exception
 .text.__cxa_free_exception
                0x02060234       0x4a c:/nburn/gcc-m68k/bin/../lib/gcc/m68k-elf/4.2.1/../../../../m68k-elf/lib/m5206e\libstdc++.a(eh_alloc.o)
                0x02060234                __cxa_free_exception
 .text._ZNKSt8bad_cast4whatEv
                0x0206027e        0xe c:/nburn/gcc-m68k/bin/../lib/gcc/m68k-elf/4.2.1/../../../../m68k-elf/lib/m5206e\libstdc++.a(bad_cast.o)
                0x0206027e                std::bad_cast::what() const
 .text._ZNSt8bad_castD0Ev
                0x0206028c       0x2a c:/nburn/gcc-m68k/bin/../lib/gcc/m68k-elf/4.2.1/../../../../m68k-elf/lib/m5206e\libstdc++.a(bad_cast.o)
                0x0206028c                std::bad_cast::~bad_cast()
 .text._ZNSt8bad_castD1Ev
                0x020602b6       0x16 c:/nburn/gcc-m68k/bin/../lib/gcc/m68k-elf/4.2.1/../../../../m68k-elf/lib/m5206e\libstdc++.a(bad_cast.o)
                0x020602b6                std::bad_cast::~bad_cast()
 .text._ZNSt8bad_castD2Ev
                0x020602cc       0x16 c:/nburn/gcc-m68k/bin/../lib/gcc/m68k-elf/4.2.1/../../../../m68k-elf/lib/m5206e\libstdc++.a(bad_cast.o)
                0x020602cc                std::bad_cast::~bad_cast()
 .text._ZNK10__cxxabiv120__si_class_type_info11__do_upcastEPKNS_17__class_type_infoEPKvRNS1_15__upcast_resultE
                0x020602e2       0x66 c:/nburn/gcc-m68k/bin/../lib/gcc/m68k-elf/4.2.1/../../../../m68k-elf/lib/m5206e\libstdc++.a(si_class_type_info.o)
                0x020602e2                __cxxabiv1::__si_class_type_info::__do_upcast(__cxxabiv1::__class_type_info const*, void const*, __cxxabiv1::__class_type_info::__upcast_result&) const
 .text._ZN10__cxxabiv120__si_class_type_infoD0Ev
                0x02060348       0x2a c:/nburn/gcc-m68k/bin/../lib/gcc/m68k-elf/4.2.1/../../../../m68k-elf/lib/m5206e\libstdc++.a(si_class_type_info.o)
                0x02060348                __cxxabiv1::__si_class_type_info::~__si_class_type_info()
 .text._ZN10__cxxabiv120__si_class_type_infoD1Ev
                0x02060372       0x16 c:/nburn/gcc-m68k/bin/../lib/gcc/m68k-elf/4.2.1/../../../../m68k-elf/lib/m5206e\libstdc++.a(si_class_type_info.o)
                0x02060372                __cxxabiv1::__si_class_type_info::~__si_class_type_info()
 .text._ZN10__cxxabiv120__si_class_type_infoD2Ev
                0x02060388       0x16 c:/nburn/gcc-m68k/bin/../lib/gcc/m68k-elf/4.2.1/../../../../m68k-elf/lib/m5206e\libstdc++.a(si_class_type_info.o)
                0x02060388                __cxxabiv1::__si_class_type_info::~__si_class_type_info()
 .text._ZNK10__cxxabiv120__si_class_type_info20__do_find_public_srcElPKvPKNS_17__class_type_infoES2_
                0x0206039e       0x3e c:/nburn/gcc-m68k/bin/../lib/gcc/m68k-elf/4.2.1/../../../../m68k-elf/lib/m5206e\libstdc++.a(si_class_type_info.o)
                0x0206039e                __cxxabiv1::__si_class_type_info::__do_find_public_src(long, void const*, __cxxabiv1::__class_type_info const*, void const*) const
 .text._ZNK10__cxxabiv120__si_class_type_info12__do_dyncastElNS_17__class_type_info10__sub_kindEPKS1_PKvS4_S6_RNS1_16__dyncast_resultE
                0x020603dc       0xc4 c:/nburn/gcc-m68k/bin/../lib/gcc/m68k-elf/4.2.1/../../../../m68k-elf/lib/m5206e\libstdc++.a(si_class_type_info.o)
                0x020603dc                __cxxabiv1::__si_class_type_info::__do_dyncast(long, __cxxabiv1::__class_type_info::__sub_kind, __cxxabiv1::__class_type_info const*, void const*, __cxxabiv1::__class_type_info const*, void const*, __cxxabiv1::__class_type_info::__dyncast_result&) const
 .text._ZN9__gnu_cxx27__verbose_terminate_handlerEv
                0x020604a0      0x1f0 c:/nburn/gcc-m68k/bin/../lib/gcc/m68k-elf/4.2.1/../../../../m68k-elf/lib/m5206e\libstdc++.a(vterminate.o)
                0x020604a0                __gnu_cxx::__verbose_terminate_handler()
 .text.__cxa_call_terminate
                0x02060690       0x42 c:/nburn/gcc-m68k/bin/../lib/gcc/m68k-elf/4.2.1/../../../../m68k-elf/lib/m5206e\libstdc++.a(eh_call.o)
                0x02060690                __cxa_call_terminate
 .text._ZNKSt9type_info14__is_pointer_pEv
                0x020606d2        0xa c:/nburn/gcc-m68k/bin/../lib/gcc/m68k-elf/4.2.1/../../../../m68k-elf/lib/m5206e\libstdc++.a(tinfo.o)
                0x020606d2                std::type_info::__is_pointer_p() const
 .text._ZNKSt9type_info15__is_function_pEv
                0x020606dc        0xa c:/nburn/gcc-m68k/bin/../lib/gcc/m68k-elf/4.2.1/../../../../m68k-elf/lib/m5206e\libstdc++.a(tinfo.o)
                0x020606dc                std::type_info::__is_function_p() const
 .text._ZNKSt9type_info10__do_catchEPKS_PPvj
                0x020606e6       0x22 c:/nburn/gcc-m68k/bin/../lib/gcc/m68k-elf/4.2.1/../../../../m68k-elf/lib/m5206e\libstdc++.a(tinfo.o)
                0x020606e6                std::type_info::__do_catch(std::type_info const*, void**, unsigned int) const
 .text._ZNKSt9type_info11__do_upcastEPKN10__cxxabiv117__class_type_infoEPPv
                0x02060708        0xa c:/nburn/gcc-m68k/bin/../lib/gcc/m68k-elf/4.2.1/../../../../m68k-elf/lib/m5206e\libstdc++.a(tinfo.o)
                0x02060708                std::type_info::__do_upcast(__cxxabiv1::__class_type_info const*, void**) const
 .text._ZNSt9type_infoD0Ev
                0x02060712       0x16 c:/nburn/gcc-m68k/bin/../lib/gcc/m68k-elf/4.2.1/../../../../m68k-elf/lib/m5206e\libstdc++.a(tinfo.o)
                0x02060712                std::type_info::~type_info()
 .text._ZNSt9type_infoD1Ev
                0x02060728       0x12 c:/nburn/gcc-m68k/bin/../lib/gcc/m68k-elf/4.2.1/../../../../m68k-elf/lib/m5206e\libstdc++.a(tinfo.o)
                0x02060728                std::type_info::~type_info()
 .text._ZNSt9type_infoD2Ev
                0x0206073a       0x12 c:/nburn/gcc-m68k/bin/../lib/gcc/m68k-elf/4.2.1/../../../../m68k-elf/lib/m5206e\libstdc++.a(tinfo.o)
                0x0206073a                std::type_info::~type_info()
 .text.__cxa_current_exception_type
                0x0206074c       0x1e c:/nburn/gcc-m68k/bin/../lib/gcc/m68k-elf/4.2.1/../../../../m68k-elf/lib/m5206e\libstdc++.a(eh_type.o)
                0x0206074c                __cxa_current_exception_type
                0x02060770                . = ALIGN (0x10)
 *fill*         0x0206076a        0x6 00
 *(.eh_frame)
 .eh_frame      0x02060770        0x0 c:/nburn/gcc-m68k/bin/../lib/gcc/m68k-elf/4.2.1/m5206e/crtbegin.o
 .eh_frame      0x02060770      0x300 c:/nburn/gcc-m68k/bin/../lib/gcc/m68k-elf/4.2.1/../../../../m68k-elf/lib/m5206e\libstdc++.a(functexcept.o)
 .eh_frame      0x02060a70       0x50 c:/nburn/gcc-m68k/bin/../lib/gcc/m68k-elf/4.2.1/../../../../m68k-elf/lib/m5206e\libstdc++.a(ios_failure.o)
                                 0x6c (size before relaxing)
 .eh_frame      0x02060ac0      0x288 c:/nburn/gcc-m68k/bin/../lib/gcc/m68k-elf/4.2.1/../../../../m68k-elf/lib/m5206e\libstdc++.a(stdexcept.o)
                                0x2a4 (size before relaxing)
 .eh_frame      0x02060d48     0x16b8 c:/nburn/gcc-m68k/bin/../lib/gcc/m68k-elf/4.2.1/../../../../m68k-elf/lib/m5206e\libstdc++.a(string-inst.o)
                               0x16d4 (size before relaxing)
 .eh_frame      0x02062400       0x88 c:/nburn/gcc-m68k/bin/../lib/gcc/m68k-elf/4.2.1/../../../../m68k-elf/lib/m5206e\libstdc++.a(eh_throw.o)
 .eh_frame      0x02062488       0x20 c:/nburn/gcc-m68k/bin/../lib/gcc/m68k-elf/4.2.1/../../../../m68k-elf/lib/m5206e\libstdc++.a(guard.o)
                                 0x3c (size before relaxing)
 .eh_frame      0x020624a8       0x50 c:/nburn/gcc-m68k/bin/../lib/gcc/m68k-elf/4.2.1/../../../../m68k-elf/lib/m5206e\libstdc++.a(eh_catch.o)
                                 0x6c (size before relaxing)
 .eh_frame      0x020624f8       0x88 c:/nburn/gcc-m68k/bin/../lib/gcc/m68k-elf/4.2.1/../../../../m68k-elf/lib/m5206e\libstdc++.a(eh_terminate.o)
                                 0xa4 (size before relaxing)
 .eh_frame      0x02062580       0x60 c:/nburn/gcc-m68k/bin/../lib/gcc/m68k-elf/4.2.1/../../../../m68k-elf/lib/m5206e\libstdc++.a(class_type_info.o)
                                 0x7c (size before relaxing)
 .eh_frame      0x020625e0      0x1e4 c:/nburn/gcc-m68k/bin/../lib/gcc/m68k-elf/4.2.1/../../../../m68k-elf/lib/m5206e\libstdc++.a(eh_personality.o)
 .eh_frame      0x020627c4       0x20 c:/nburn/gcc-m68k/bin/../lib/gcc/m68k-elf/4.2.1/../../../../m68k-elf/lib/m5206e\libstdc++.a(pure.o)
                                 0x3c (size before relaxing)
 .eh_frame      0x020627e4       0x34 c:/nburn/gcc-m68k/bin/../lib/gcc/m68k-elf/4.2.1/../../../../m68k-elf/lib/m5206e\libstdc++.a(eh_alloc.o)
                                 0x50 (size before relaxing)
 .eh_frame      0x02062818       0x68 c:/nburn/gcc-m68k/bin/../lib/gcc/m68k-elf/4.2.1/../../../../m68k-elf/lib/m5206e\libstdc++.a(si_class_type_info.o)
                                 0x84 (size before relaxing)
 .eh_frame      0x02062880       0x60 c:/nburn/gcc-m68k/bin/../lib/gcc/m68k-elf/4.2.1/../../../../m68k-elf/lib/m5206e\libstdc++.a(vterminate.o)
                                 0x7c (size before relaxing)
 .eh_frame      0x020628e0       0x28 c:/nburn/gcc-m68k/bin/../lib/gcc/m68k-elf/4.2.1/../../../../m68k-elf/lib/m5206e\libstdc++.a(eh_call.o)
                                 0x44 (size before relaxing)
 .eh_frame      0x02062908       0x40 c:/nburn/gcc-m68k/bin/../lib/gcc/m68k-elf/4.2.1/m5206e\libgcc.a(_udivdi3.o)
 .eh_frame      0x02062948       0x2c c:/nburn/gcc-m68k/bin/../lib/gcc/m68k-elf/4.2.1/m5206e\libgcc.a(_umoddi3.o)
                                 0x40 (size before relaxing)
 .eh_frame      0x02062974      0x2bc c:/nburn/gcc-m68k/bin/../lib/gcc/m68k-elf/4.2.1/m5206e\libgcc.a(unwind-dw2.o)
                                0x2d0 (size before relaxing)
 .eh_frame      0x02062c30      0x13c c:/nburn/gcc-m68k/bin/../lib/gcc/m68k-elf/4.2.1/m5206e\libgcc.a(unwind-dw2-fde.o)
                                0x150 (size before relaxing)
 .eh_frame      0x02062d6c        0x4 c:/nburn/gcc-m68k/bin/../lib/gcc/m68k-elf/4.2.1/m5206e/crtend.o
                0x02062d70                . = ALIGN (0x10)
 *fill*         0x02062d70        0x0 00
 *(.gnu.linkonce.t.*)
                0x02062d70                . = ALIGN (0x4)
                0x02062d70                __CTOR_LIST__ = .
 *(.ctors)
 .ctors         0x02062d70        0x4 c:/nburn/gcc-m68k/bin/../lib/gcc/m68k-elf/4.2.1/m5206e/crtbegin.o
 .ctors         0x02062d74        0x4 main.o
 .ctors         0x02062d78        0x4 C:\nburn/lib/NetBurner.a(ip.o)
 .ctors         0x02062d7c        0x4 C:\nburn/lib/NetBurner.a(buffers.o)
 .ctors         0x02062d80        0x4 C:\nburn/lib/NetBurner.a(tcp.o)
 .ctors         0x02062d84        0x4 C:\nburn/lib/MOD5270.a(serial.o)
 .ctors         0x02062d88        0x4 c:/nburn/gcc-m68k/bin/../lib/gcc/m68k-elf/4.2.1/../../../../m68k-elf/lib/m5206e\libstdc++.a(eh_alloc.o)
 .ctors         0x02062d8c        0x4 c:/nburn/gcc-m68k/bin/../lib/gcc/m68k-elf/4.2.1/m5206e/crtend.o
                0x02062d90                __CTOR_END__ = .
                0x02062d90        0x4 LONG 0x0
                0x02062d94                __CTOR_END__ = .
                0x02062d94                __DTOR_LIST__ = .
                0x02062d94                ___DTOR_LIST__ = .
                0x02062d94        0x4 LONG 0x2 (((__DTOR_END__ - __DTOR_LIST__) / 0x4) - 0x2)
 *(.dtors)
 .dtors         0x02062d98        0x4 c:/nburn/gcc-m68k/bin/../lib/gcc/m68k-elf/4.2.1/m5206e/crtbegin.o
 .dtors         0x02062d9c        0x4 c:/nburn/gcc-m68k/bin/../lib/gcc/m68k-elf/4.2.1/m5206e/crtend.o
                0x02062da0        0x4 LONG 0x0
                0x02062da4                __DTOR_END__ = .
 *(.rodata)
 .rodata        0x02062da4       0x44 utils.o
 .rodata        0x02062de8       0x20 services.o
 .rodata        0x02062e08       0x24 obs.o
 .rodata        0x02062e2c        0x4 main.o
 .rodata        0x02062e30       0x27 io.o
                0x02062e30                cpld
 *fill*         0x02062e57        0x1 00
 .rodata        0x02062e58        0x4 dhtml.o
 .rodata        0x02062e5c        0x8 data.o
 .rodata        0x02062e64       0x50 control.o
 .rodata        0x02062eb4      0x120 argus_io.o
 .rodata        0x02062fd4       0x90 argus_control.o
 .rodata        0x02063064      0x108 C:\nburn/lib/NetBurner.a(ucos.o)
                0x0206306c                FAKE_OSUnMapTbl
                0x02063064                FAKE_OSMapTbl
 .rodata        0x0206316c       0xb8 C:\nburn/lib/NetBurner.a(utils.o)
 *fill*         0x02063224        0xc 00
 .rodata        0x02063230        0x4 C:\nburn/lib/NetBurner.a(buffers.o)
 .rodata        0x02063234        0x2 C:\nburn/lib/NetBurner.a(udp.o)
 .rodata        0x02063236        0xd C:\nburn/lib/NetBurner.a(tcp.o)
 *fill*         0x02063243        0x1 00
 .rodata        0x02063244      0x400 C:\nburn/lib/MOD5270.a(emulticast.o)
 .rodata        0x02063644      0x5de c:/nburn/gcc-m68k/bin/../lib/gcc/m68k-elf/4.2.1/../../../../m68k-elf/lib/m5206e\libstdc++.a(cp-demangle.o)
 .rodata        0x02063c22       0x18 c:/nburn/gcc-m68k/bin/../lib/gcc/m68k-elf/4.2.1/../../../../m68k-elf/lib/m5206e\libm.a(lib_a-ef_pow.o)
 .rodata        0x02063c3a       0x10 c:/nburn/gcc-m68k/bin/../lib/gcc/m68k-elf/4.2.1/../../../../m68k-elf/lib/m5206e\libm.a(lib_a-s_rint.o)
 .rodata        0x02063c4a      0x100 c:/nburn/gcc-m68k/bin/../lib/gcc/m68k-elf/4.2.1/m5206e\libgcc.a(_clz.o)
                0x02063c4a                __clz_tab
 .rodata        0x02063d4a      0x101 c:/nburn/gcc-m68k/bin/../lib/gcc/m68k-elf/4.2.1/../../../../m68k-elf/lib/m5206e\libc.a(lib_a-ctype_.o)
                0x02063d4a                _ctype_
 *fill*         0x02063e4b        0x1 00
 .rodata        0x02063e4c        0x4 c:/nburn/gcc-m68k/bin/../lib/gcc/m68k-elf/4.2.1/../../../../m68k-elf/lib/m5206e\libc.a(lib_a-impure.o)
                0x02063e4c                _global_impure_ptr
 .rodata        0x02063e50       0x68 c:/nburn/gcc-m68k/bin/../lib/gcc/m68k-elf/4.2.1/../../../../m68k-elf/lib/m5206e\libc.a(lib_a-mktm_r.o)
 .rodata        0x02063eb8       0x28 c:/nburn/gcc-m68k/bin/../lib/gcc/m68k-elf/4.2.1/../../../../m68k-elf/lib/m5206e\libc.a(lib_a-strtod.o)
 .rodata        0x02063ee0       0x20 c:/nburn/gcc-m68k/bin/../lib/gcc/m68k-elf/4.2.1/../../../../m68k-elf/lib/m5206e\libc.a(lib_a-vfiprintf.o)
 .rodata        0x02063f00       0x20 c:/nburn/gcc-m68k/bin/../lib/gcc/m68k-elf/4.2.1/../../../../m68k-elf/lib/m5206e\libc.a(lib_a-vfprintf.o)
 .rodata        0x02063f20       0x22 c:/nburn/gcc-m68k/bin/../lib/gcc/m68k-elf/4.2.1/../../../../m68k-elf/lib/m5206e\libc.a(lib_a-vfscanf.o)
 .rodata        0x02063f42       0x34 c:/nburn/gcc-m68k/bin/../lib/gcc/m68k-elf/4.2.1/../../../../m68k-elf/lib/m5206e\libc.a(lib_a-locale.o)
 .rodata        0x02063f76      0x124 c:/nburn/gcc-m68k/bin/../lib/gcc/m68k-elf/4.2.1/../../../../m68k-elf/lib/m5206e\libc.a(lib_a-mprec.o)
                0x02064066                __mprec_tinytens
                0x02063f76                __mprec_tens
                0x0206403e                __mprec_bigtens
 *(.rodata.*)
 .rodata.str1.1
                0x0206409a      0x162 utils.o
                                0x167 (size before relaxing)
 .rodata.str1.1
                0x020641fc      0x43c services.o
                                0x451 (size before relaxing)
 .rodata._ZTV14MessageService
                0x02064638       0x28 services.o
                0x02064638                vtable for MessageService
 .rodata._ZTV14MonitorService
                0x02064660       0x2c services.o
                0x02064660                vtable for MonitorService
 .rodata._ZTV11DataService
                0x0206468c       0x2c services.o
                0x0206468c                vtable for DataService
 .rodata._ZTV14ControlService
                0x020646b8       0x28 services.o
                0x020646b8                vtable for ControlService
 .rodata._ZTV16SimpleTcpService
                0x020646e0       0x2c services.o
                0x020646e0                vtable for SimpleTcpService
 .rodata._ZTV10UdpService
                0x0206470c       0x28 services.o
                0x0206470c                vtable for UdpService
 .rodata._ZTV10TcpService
                0x02064734       0x28 services.o
                0x02064734                vtable for TcpService
 .rodata._ZTV7Service
                0x0206475c       0x28 services.o
                0x0206475c                vtable for Service
 .rodata._ZTV9IpService
                0x02064784       0x28 services.o
                0x02064784                vtable for IpService
 .rodata._ZTV6Client
                0x020647ac       0x10 services.o
                0x020647ac                vtable for Client
 .rodata._ZTV9TcpClient
                0x020647bc       0x10 services.o
                0x020647bc                vtable for TcpClient
 .rodata._ZTV8IpClient
                0x020647cc       0x10 services.o
                0x020647cc                vtable for IpClient
 .rodata.str1.1
                0x020647dc       0x48 observations.o
 .rodata._ZTV16ScopeObservation
                0x02064824       0x14 observations.o
                0x02064824                vtable for ScopeObservation
 .rodata._ZTV16StatsObservation
                0x02064838       0x14 observations.o
                0x02064838                vtable for StatsObservation
 .rodata._ZTV16BasicObservation
                0x0206484c       0x14 observations.o
                0x0206484c                vtable for BasicObservation
 .rodata._ZTV11Observation
                0x02064860       0x14 observations.o
                0x02064860                vtable for Observation
 .rodata.str1.1
                0x02064874      0xa00 obs.o
                                0xa2e (size before relaxing)
 .rodata.str1.1
                0x02065274      0x1c8 main.o
                                0x29b (size before relaxing)
 .rodata.str1.1
                0x0206543c       0xa9 io.o
                                 0xb8 (size before relaxing)
 .rodata.str1.1
                0x020654e5       0x14 dhtml.o
                                 0x1a (size before relaxing)
 .rodata.str1.1
                0x020654f9       0x44 data.o
                                 0x4c (size before relaxing)
 .rodata.str1.1
                0x0206553d     0x1576 control.o
                               0x15ce (size before relaxing)
 .rodata.str1.1
                0x02066ab3       0x14 boot.o
                                 0x51 (size before relaxing)
 .rodata.str1.1
                0x02066ac7       0x93 argus_io.o
                                 0xbe (size before relaxing)
 .rodata.str1.1
                0x02066b5a     0x3e64 argus_control.o
                               0x3eee (size before relaxing)
 .rodata.str1.1
                0x0206a9be       0x11 C:\nburn/lib/MOD5270.a(bsp.o)
 .rodata.str1.1
                0x0206a9cf        0x5 C:\nburn/lib/NetBurner.a(ucos.o)
 .rodata.str1.1
                0x0206a9d4        0x3 C:\nburn/lib/NetBurner.a(fileio.o)
                                  0x6 (size before relaxing)
 .rodata.str1.1
                0x0206a9d7       0xc4 C:\nburn/lib/NetBurner.a(system.o)
                                 0xcd (size before relaxing)
 .rodata.str1.1
                0x0206aa9b        0x5 C:\nburn/lib/NetBurner.a(main.o)
 .rodata.str1.1
                0x0206aaa0      0x167 C:\nburn/lib/NetBurner.a(utils.o)
                                0x17b (size before relaxing)
 .rodata.str1.1
                0x0206ac07      0x212 C:\nburn/lib/NetBurner.a(ip.o)
                                0x217 (size before relaxing)
 .rodata.str1.1
                0x0206ae19       0x68 C:\nburn/lib/NetBurner.a(buffers.o)
                                 0x70 (size before relaxing)
 .rodata.str1.1
                0x0206ae81       0x50 C:\nburn/lib/NetBurner.a(arp.o)
 .rodata.str1.1
                0x0206aed1       0x18 C:\nburn/lib/NetBurner.a(udp.o)
 .rodata.str1.1
                0x0206aee9      0x38f C:\nburn/lib/NetBurner.a(tcp.o)
                                0x392 (size before relaxing)
 .rodata.str1.1
                0x0206b278        0x5 C:\nburn/lib/NetBurner.a(http.o)
 .rodata.str1.1
                0x0206b27d      0x276 C:\nburn/lib/NetBurner.a(httpinternal.o)
                                0x2a8 (size before relaxing)
 .rodata.str1.1
                0x0206b4f3       0xf3 C:\nburn/lib/NetBurner.a(htmldecomp.o)
 .rodata.str1.1
                0x0206b5e6       0x2c C:\nburn/lib/NetBurner.a(dhcpc.o)
                                 0x2f (size before relaxing)
 .rodata.str1.1
                0x0206b612       0xa2 C:\nburn/lib/NetBurner.a(taskmon.o)
                                 0xa7 (size before relaxing)
 .rodata.str1.1
                0x0206b6b4      0x4f9 C:\nburn/lib/NetBurner.a(smarttrap.o)
                                0x540 (size before relaxing)
 .rodata.str1.1
                0x0206bbad      0x156 C:\nburn/lib/MOD5270.a(serial.o)
                                0x15a (size before relaxing)
 .rodata.str1.1
                0x0206bd03        0xe C:\nburn/lib/MOD5270.a(ethernet.o)
 .rodata.str1.1
                0x0206bd11       0x1a C:\nburn/lib/MOD5270.a(etherprint.o)
                                 0x22 (size before relaxing)
 *fill*         0x0206bd2b        0x1 00
 .rodata._ZTISt15underflow_error
                0x0206bd2c        0xc c:/nburn/gcc-m68k/bin/../lib/gcc/m68k-elf/4.2.1/../../../../m68k-elf/lib/m5206e\libstdc++.a(functexcept.o)
                0x0206bd2c                typeinfo for std::underflow_error
 .rodata._ZTSSt15underflow_error
                0x0206bd38       0x14 c:/nburn/gcc-m68k/bin/../lib/gcc/m68k-elf/4.2.1/../../../../m68k-elf/lib/m5206e\libstdc++.a(functexcept.o)
                0x0206bd38                typeinfo name for std::underflow_error
 .rodata._ZTVSt15underflow_error
                0x0206bd4c       0x14 c:/nburn/gcc-m68k/bin/../lib/gcc/m68k-elf/4.2.1/../../../../m68k-elf/lib/m5206e\libstdc++.a(functexcept.o)
                0x0206bd4c                vtable for std::underflow_error
 .rodata._ZTISt14overflow_error
                0x0206bd60        0xc c:/nburn/gcc-m68k/bin/../lib/gcc/m68k-elf/4.2.1/../../../../m68k-elf/lib/m5206e\libstdc++.a(functexcept.o)
                0x0206bd60                typeinfo for std::overflow_error
 .rodata._ZTSSt14overflow_error
                0x0206bd6c       0x13 c:/nburn/gcc-m68k/bin/../lib/gcc/m68k-elf/4.2.1/../../../../m68k-elf/lib/m5206e\libstdc++.a(functexcept.o)
                0x0206bd6c                typeinfo name for std::overflow_error
 *fill*         0x0206bd7f        0x1 00
 .rodata._ZTVSt14overflow_error
                0x0206bd80       0x14 c:/nburn/gcc-m68k/bin/../lib/gcc/m68k-elf/4.2.1/../../../../m68k-elf/lib/m5206e\libstdc++.a(functexcept.o)
                0x0206bd80                vtable for std::overflow_error
 .rodata._ZTISt11range_error
                0x0206bd94        0xc c:/nburn/gcc-m68k/bin/../lib/gcc/m68k-elf/4.2.1/../../../../m68k-elf/lib/m5206e\libstdc++.a(functexcept.o)
                0x0206bd94                typeinfo for std::range_error
 .rodata._ZTSSt11range_error
                0x0206bda0       0x10 c:/nburn/gcc-m68k/bin/../lib/gcc/m68k-elf/4.2.1/../../../../m68k-elf/lib/m5206e\libstdc++.a(functexcept.o)
                0x0206bda0                typeinfo name for std::range_error
 .rodata._ZTVSt11range_error
                0x0206bdb0       0x14 c:/nburn/gcc-m68k/bin/../lib/gcc/m68k-elf/4.2.1/../../../../m68k-elf/lib/m5206e\libstdc++.a(functexcept.o)
                0x0206bdb0                vtable for std::range_error
 .rodata._ZTISt12out_of_range
                0x0206bdc4        0xc c:/nburn/gcc-m68k/bin/../lib/gcc/m68k-elf/4.2.1/../../../../m68k-elf/lib/m5206e\libstdc++.a(functexcept.o)
                0x0206bdc4                typeinfo for std::out_of_range
 .rodata._ZTSSt12out_of_range
                0x0206bdd0       0x11 c:/nburn/gcc-m68k/bin/../lib/gcc/m68k-elf/4.2.1/../../../../m68k-elf/lib/m5206e\libstdc++.a(functexcept.o)
                0x0206bdd0                typeinfo name for std::out_of_range
 *fill*         0x0206bde1        0x3 00
 .rodata._ZTVSt12out_of_range
                0x0206bde4       0x14 c:/nburn/gcc-m68k/bin/../lib/gcc/m68k-elf/4.2.1/../../../../m68k-elf/lib/m5206e\libstdc++.a(functexcept.o)
                0x0206bde4                vtable for std::out_of_range
 .rodata._ZTISt12length_error
                0x0206bdf8        0xc c:/nburn/gcc-m68k/bin/../lib/gcc/m68k-elf/4.2.1/../../../../m68k-elf/lib/m5206e\libstdc++.a(functexcept.o)
                0x0206bdf8                typeinfo for std::length_error
 .rodata._ZTSSt12length_error
                0x0206be04       0x11 c:/nburn/gcc-m68k/bin/../lib/gcc/m68k-elf/4.2.1/../../../../m68k-elf/lib/m5206e\libstdc++.a(functexcept.o)
                0x0206be04                typeinfo name for std::length_error
 *fill*         0x0206be15        0x3 00
 .rodata._ZTVSt12length_error
                0x0206be18       0x14 c:/nburn/gcc-m68k/bin/../lib/gcc/m68k-elf/4.2.1/../../../../m68k-elf/lib/m5206e\libstdc++.a(functexcept.o)
                0x0206be18                vtable for std::length_error
 .rodata._ZTISt16invalid_argument
                0x0206be2c        0xc c:/nburn/gcc-m68k/bin/../lib/gcc/m68k-elf/4.2.1/../../../../m68k-elf/lib/m5206e\libstdc++.a(functexcept.o)
                0x0206be2c                typeinfo for std::invalid_argument
 .rodata._ZTSSt16invalid_argument
                0x0206be38       0x15 c:/nburn/gcc-m68k/bin/../lib/gcc/m68k-elf/4.2.1/../../../../m68k-elf/lib/m5206e\libstdc++.a(functexcept.o)
                0x0206be38                typeinfo name for std::invalid_argument
 *fill*         0x0206be4d        0x3 00
 .rodata._ZTVSt16invalid_argument
                0x0206be50       0x14 c:/nburn/gcc-m68k/bin/../lib/gcc/m68k-elf/4.2.1/../../../../m68k-elf/lib/m5206e\libstdc++.a(functexcept.o)
                0x0206be50                vtable for std::invalid_argument
 .rodata._ZTISt12domain_error
                0x0206be64        0xc c:/nburn/gcc-m68k/bin/../lib/gcc/m68k-elf/4.2.1/../../../../m68k-elf/lib/m5206e\libstdc++.a(functexcept.o)
                0x0206be64                typeinfo for std::domain_error
 .rodata._ZTSSt12domain_error
                0x0206be70       0x11 c:/nburn/gcc-m68k/bin/../lib/gcc/m68k-elf/4.2.1/../../../../m68k-elf/lib/m5206e\libstdc++.a(functexcept.o)
                0x0206be70                typeinfo name for std::domain_error
 *fill*         0x0206be81        0x3 00
 .rodata._ZTVSt12domain_error
                0x0206be84       0x14 c:/nburn/gcc-m68k/bin/../lib/gcc/m68k-elf/4.2.1/../../../../m68k-elf/lib/m5206e\libstdc++.a(functexcept.o)
                0x0206be84                vtable for std::domain_error
 .rodata._ZTVNSt8ios_base7failureE
                0x0206be98       0x14 c:/nburn/gcc-m68k/bin/../lib/gcc/m68k-elf/4.2.1/../../../../m68k-elf/lib/m5206e\libstdc++.a(ios_failure.o)
                0x0206be98                vtable for std::ios_base::failure
 .rodata._ZTSNSt8ios_base7failureE
                0x0206beac       0x16 c:/nburn/gcc-m68k/bin/../lib/gcc/m68k-elf/4.2.1/../../../../m68k-elf/lib/m5206e\libstdc++.a(ios_failure.o)
                0x0206beac                typeinfo name for std::ios_base::failure
 .rodata._ZTINSt8ios_base7failureE
                0x0206bec2        0xc c:/nburn/gcc-m68k/bin/../lib/gcc/m68k-elf/4.2.1/../../../../m68k-elf/lib/m5206e\libstdc++.a(ios_failure.o)
                0x0206bec2                typeinfo for std::ios_base::failure
 *fill*         0x0206bece        0x2 00
 .rodata._ZTVSt13runtime_error
                0x0206bed0       0x14 c:/nburn/gcc-m68k/bin/../lib/gcc/m68k-elf/4.2.1/../../../../m68k-elf/lib/m5206e\libstdc++.a(stdexcept.o)
                0x0206bed0                vtable for std::runtime_error
 .rodata._ZTVSt11logic_error
                0x0206bee4       0x14 c:/nburn/gcc-m68k/bin/../lib/gcc/m68k-elf/4.2.1/../../../../m68k-elf/lib/m5206e\libstdc++.a(stdexcept.o)
                0x0206bee4                vtable for std::logic_error
 .rodata._ZTSSt13runtime_error
                0x0206bef8       0x12 c:/nburn/gcc-m68k/bin/../lib/gcc/m68k-elf/4.2.1/../../../../m68k-elf/lib/m5206e\libstdc++.a(stdexcept.o)
                0x0206bef8                typeinfo name for std::runtime_error
 .rodata._ZTISt13runtime_error
                0x0206bf0a        0xc c:/nburn/gcc-m68k/bin/../lib/gcc/m68k-elf/4.2.1/../../../../m68k-elf/lib/m5206e\libstdc++.a(stdexcept.o)
                0x0206bf0a                typeinfo for std::runtime_error
 .rodata._ZTSSt11logic_error
                0x0206bf16       0x10 c:/nburn/gcc-m68k/bin/../lib/gcc/m68k-elf/4.2.1/../../../../m68k-elf/lib/m5206e\libstdc++.a(stdexcept.o)
                0x0206bf16                typeinfo name for std::logic_error
 .rodata._ZTISt11logic_error
                0x0206bf26        0xc c:/nburn/gcc-m68k/bin/../lib/gcc/m68k-elf/4.2.1/../../../../m68k-elf/lib/m5206e\libstdc++.a(stdexcept.o)
                0x0206bf26                typeinfo for std::logic_error
 .rodata.str1.1
                0x0206bf32      0x147 c:/nburn/gcc-m68k/bin/../lib/gcc/m68k-elf/4.2.1/../../../../m68k-elf/lib/m5206e\libstdc++.a(string-inst.o)
 *fill*         0x0206c079        0x1 00
 .rodata._ZNSs4nposE
                0x0206c07a        0x4 c:/nburn/gcc-m68k/bin/../lib/gcc/m68k-elf/4.2.1/../../../../m68k-elf/lib/m5206e\libstdc++.a(string-inst.o)
                0x0206c07a                std::string::npos
 .rodata._ZNSs4_Rep11_S_max_sizeE
                0x0206c07e        0x4 c:/nburn/gcc-m68k/bin/../lib/gcc/m68k-elf/4.2.1/../../../../m68k-elf/lib/m5206e\libstdc++.a(string-inst.o)
                0x0206c07e                std::string::_Rep::_S_max_size
 .rodata._ZNSs4_Rep11_S_terminalE
                0x0206c082        0x1 c:/nburn/gcc-m68k/bin/../lib/gcc/m68k-elf/4.2.1/../../../../m68k-elf/lib/m5206e\libstdc++.a(string-inst.o)
                0x0206c082                std::string::_Rep::_S_terminal
 .rodata.str1.1
                0x0206c083        0xf c:/nburn/gcc-m68k/bin/../lib/gcc/m68k-elf/4.2.1/../../../../m68k-elf/lib/m5206e\libstdc++.a(new_handler.o)
 .rodata._ZSt7nothrow
                0x0206c092        0x1 c:/nburn/gcc-m68k/bin/../lib/gcc/m68k-elf/4.2.1/../../../../m68k-elf/lib/m5206e\libstdc++.a(new_handler.o)
                0x0206c092                std::nothrow
 *fill*         0x0206c093        0x1 00
 .rodata._ZTVSt9bad_alloc
                0x0206c094       0x14 c:/nburn/gcc-m68k/bin/../lib/gcc/m68k-elf/4.2.1/../../../../m68k-elf/lib/m5206e\libstdc++.a(new_handler.o)
                0x0206c094                vtable for std::bad_alloc
 .rodata._ZTSSt9bad_alloc
                0x0206c0a8        0xd c:/nburn/gcc-m68k/bin/../lib/gcc/m68k-elf/4.2.1/../../../../m68k-elf/lib/m5206e\libstdc++.a(new_handler.o)
                0x0206c0a8                typeinfo name for std::bad_alloc
 *fill*         0x0206c0b5        0x1 00
 .rodata._ZTISt9bad_alloc
                0x0206c0b6        0xc c:/nburn/gcc-m68k/bin/../lib/gcc/m68k-elf/4.2.1/../../../../m68k-elf/lib/m5206e\libstdc++.a(new_handler.o)
                0x0206c0b6                typeinfo for std::bad_alloc
 .rodata.str1.1
                0x0206c0c2       0x22 c:/nburn/gcc-m68k/bin/../lib/gcc/m68k-elf/4.2.1/../../../../m68k-elf/lib/m5206e\libstdc++.a(eh_exception.o)
 .rodata._ZTVSt13bad_exception
                0x0206c0e4       0x14 c:/nburn/gcc-m68k/bin/../lib/gcc/m68k-elf/4.2.1/../../../../m68k-elf/lib/m5206e\libstdc++.a(eh_exception.o)
                0x0206c0e4                vtable for std::bad_exception
 .rodata._ZTVSt9exception
                0x0206c0f8       0x14 c:/nburn/gcc-m68k/bin/../lib/gcc/m68k-elf/4.2.1/../../../../m68k-elf/lib/m5206e\libstdc++.a(eh_exception.o)
                0x0206c0f8                vtable for std::exception
 .rodata._ZTSSt13bad_exception
                0x0206c10c       0x12 c:/nburn/gcc-m68k/bin/../lib/gcc/m68k-elf/4.2.1/../../../../m68k-elf/lib/m5206e\libstdc++.a(eh_exception.o)
                0x0206c10c                typeinfo name for std::bad_exception
 .rodata._ZTISt13bad_exception
                0x0206c11e        0xc c:/nburn/gcc-m68k/bin/../lib/gcc/m68k-elf/4.2.1/../../../../m68k-elf/lib/m5206e\libstdc++.a(eh_exception.o)
                0x0206c11e                typeinfo for std::bad_exception
 .rodata._ZTSSt9exception
                0x0206c12a        0xd c:/nburn/gcc-m68k/bin/../lib/gcc/m68k-elf/4.2.1/../../../../m68k-elf/lib/m5206e\libstdc++.a(eh_exception.o)
                0x0206c12a                typeinfo name for std::exception
 *fill*         0x0206c137        0x1 00
 .rodata._ZTISt9exception
                0x0206c138        0x8 c:/nburn/gcc-m68k/bin/../lib/gcc/m68k-elf/4.2.1/../../../../m68k-elf/lib/m5206e\libstdc++.a(eh_exception.o)
                0x0206c138                typeinfo for std::exception
 .rodata._ZTVN9__gnu_cxx20recursive_init_errorE
                0x0206c140       0x14 c:/nburn/gcc-m68k/bin/../lib/gcc/m68k-elf/4.2.1/../../../../m68k-elf/lib/m5206e\libstdc++.a(guard.o)
                0x0206c140                vtable for __gnu_cxx::recursive_init_error
 .rodata._ZTSN9__gnu_cxx20recursive_init_errorE
                0x0206c154       0x23 c:/nburn/gcc-m68k/bin/../lib/gcc/m68k-elf/4.2.1/../../../../m68k-elf/lib/m5206e\libstdc++.a(guard.o)
                0x0206c154                typeinfo name for __gnu_cxx::recursive_init_error
 *fill*         0x0206c177        0x1 00
 .rodata._ZTIN9__gnu_cxx20recursive_init_errorE
                0x0206c178        0xc c:/nburn/gcc-m68k/bin/../lib/gcc/m68k-elf/4.2.1/../../../../m68k-elf/lib/m5206e\libstdc++.a(guard.o)
                0x0206c178                typeinfo for __gnu_cxx::recursive_init_error
 .rodata.str1.1
                0x0206c184       0x10 c:/nburn/gcc-m68k/bin/../lib/gcc/m68k-elf/4.2.1/../../../../m68k-elf/lib/m5206e\libstdc++.a(bad_typeid.o)
 .rodata._ZTVSt10bad_typeid
                0x0206c194       0x14 c:/nburn/gcc-m68k/bin/../lib/gcc/m68k-elf/4.2.1/../../../../m68k-elf/lib/m5206e\libstdc++.a(bad_typeid.o)
                0x0206c194                vtable for std::bad_typeid
 .rodata._ZTSSt10bad_typeid
                0x0206c1a8        0xf c:/nburn/gcc-m68k/bin/../lib/gcc/m68k-elf/4.2.1/../../../../m68k-elf/lib/m5206e\libstdc++.a(bad_typeid.o)
                0x0206c1a8                typeinfo name for std::bad_typeid
 *fill*         0x0206c1b7        0x1 00
 .rodata._ZTISt10bad_typeid
                0x0206c1b8        0xc c:/nburn/gcc-m68k/bin/../lib/gcc/m68k-elf/4.2.1/../../../../m68k-elf/lib/m5206e\libstdc++.a(bad_typeid.o)
                0x0206c1b8                typeinfo for std::bad_typeid
 .rodata._ZTVN10__cxxabiv117__class_type_infoE
                0x0206c1c4       0x2c c:/nburn/gcc-m68k/bin/../lib/gcc/m68k-elf/4.2.1/../../../../m68k-elf/lib/m5206e\libstdc++.a(class_type_info.o)
                0x0206c1c4                vtable for __cxxabiv1::__class_type_info
 .rodata._ZTSN10__cxxabiv117__class_type_infoE
                0x0206c1f0       0x22 c:/nburn/gcc-m68k/bin/../lib/gcc/m68k-elf/4.2.1/../../../../m68k-elf/lib/m5206e\libstdc++.a(class_type_info.o)
                0x0206c1f0                typeinfo name for __cxxabiv1::__class_type_info
 .rodata._ZTIN10__cxxabiv117__class_type_infoE
                0x0206c212        0xc c:/nburn/gcc-m68k/bin/../lib/gcc/m68k-elf/4.2.1/../../../../m68k-elf/lib/m5206e\libstdc++.a(class_type_info.o)
                0x0206c212                typeinfo for __cxxabiv1::__class_type_info
 .rodata.str1.1
                0x0206c21e       0x1c c:/nburn/gcc-m68k/bin/../lib/gcc/m68k-elf/4.2.1/../../../../m68k-elf/lib/m5206e\libstdc++.a(pure.o)
 .rodata.str1.1
                0x0206c23a        0xe c:/nburn/gcc-m68k/bin/../lib/gcc/m68k-elf/4.2.1/../../../../m68k-elf/lib/m5206e\libstdc++.a(bad_cast.o)
 .rodata._ZTVSt8bad_cast
                0x0206c248       0x14 c:/nburn/gcc-m68k/bin/../lib/gcc/m68k-elf/4.2.1/../../../../m68k-elf/lib/m5206e\libstdc++.a(bad_cast.o)
                0x0206c248                vtable for std::bad_cast
 .rodata._ZTSSt8bad_cast
                0x0206c25c        0xc c:/nburn/gcc-m68k/bin/../lib/gcc/m68k-elf/4.2.1/../../../../m68k-elf/lib/m5206e\libstdc++.a(bad_cast.o)
                0x0206c25c                typeinfo name for std::bad_cast
 .rodata._ZTISt8bad_cast
                0x0206c268        0xc c:/nburn/gcc-m68k/bin/../lib/gcc/m68k-elf/4.2.1/../../../../m68k-elf/lib/m5206e\libstdc++.a(bad_cast.o)
                0x0206c268                typeinfo for std::bad_cast
 .rodata._ZTVN10__cxxabiv120__si_class_type_infoE
                0x0206c274       0x2c c:/nburn/gcc-m68k/bin/../lib/gcc/m68k-elf/4.2.1/../../../../m68k-elf/lib/m5206e\libstdc++.a(si_class_type_info.o)
                0x0206c274                vtable for __cxxabiv1::__si_class_type_info
 .rodata._ZTSN10__cxxabiv120__si_class_type_infoE
                0x0206c2a0       0x25 c:/nburn/gcc-m68k/bin/../lib/gcc/m68k-elf/4.2.1/../../../../m68k-elf/lib/m5206e\libstdc++.a(si_class_type_info.o)
                0x0206c2a0                typeinfo name for __cxxabiv1::__si_class_type_info
 *fill*         0x0206c2c5        0x1 00
 .rodata._ZTIN10__cxxabiv120__si_class_type_infoE
                0x0206c2c6        0xc c:/nburn/gcc-m68k/bin/../lib/gcc/m68k-elf/4.2.1/../../../../m68k-elf/lib/m5206e\libstdc++.a(si_class_type_info.o)
                0x0206c2c6                typeinfo for __cxxabiv1::__si_class_type_info
 .rodata.str1.1
                0x0206c2d2       0x8c c:/nburn/gcc-m68k/bin/../lib/gcc/m68k-elf/4.2.1/../../../../m68k-elf/lib/m5206e\libstdc++.a(vterminate.o)
 .rodata.str1.1
                0x0206c35e      0x437 c:/nburn/gcc-m68k/bin/../lib/gcc/m68k-elf/4.2.1/../../../../m68k-elf/lib/m5206e\libstdc++.a(cp-demangle.o)
                                0x509 (size before relaxing)
 *fill*         0x0206c795        0x3 00
 .rodata._ZTVSt9type_info
                0x0206c798       0x20 c:/nburn/gcc-m68k/bin/../lib/gcc/m68k-elf/4.2.1/../../../../m68k-elf/lib/m5206e\libstdc++.a(tinfo.o)
                0x0206c798                vtable for std::type_info
 .rodata._ZTSSt9type_info
                0x0206c7b8        0xd c:/nburn/gcc-m68k/bin/../lib/gcc/m68k-elf/4.2.1/../../../../m68k-elf/lib/m5206e\libstdc++.a(tinfo.o)
                0x0206c7b8                typeinfo name for std::type_info
 *fill*         0x0206c7c5        0x1 00
 .rodata._ZTISt9type_info
                0x0206c7c6        0x8 c:/nburn/gcc-m68k/bin/../lib/gcc/m68k-elf/4.2.1/../../../../m68k-elf/lib/m5206e\libstdc++.a(tinfo.o)
                0x0206c7c6                typeinfo for std::type_info
 .rodata.str1.1
                0x0206c7ce        0x6 c:/nburn/gcc-m68k/bin/../lib/gcc/m68k-elf/4.2.1/../../../../m68k-elf/lib/m5206e\libm.a(lib_a-wf_asin.o)
 .rodata.str1.1
                0x0206c7d4        0x5 c:/nburn/gcc-m68k/bin/../lib/gcc/m68k-elf/4.2.1/../../../../m68k-elf/lib/m5206e\libm.a(lib_a-wf_pow.o)
 .rodata.str1.1
                0x00000000        0x5 c:/nburn/gcc-m68k/bin/../lib/gcc/m68k-elf/4.2.1/../../../../m68k-elf/lib/m5206e\libc.a(lib_a-impure.o)
                                  0x2 (size before relaxing)
 .rodata.str1.1
                0x00000000        0x2 c:/nburn/gcc-m68k/bin/../lib/gcc/m68k-elf/4.2.1/../../../../m68k-elf/lib/m5206e\libc.a(lib_a-puts.o)
 .rodata.str1.1
                0x00000000        0x5 c:/nburn/gcc-m68k/bin/../lib/gcc/m68k-elf/4.2.1/../../../../m68k-elf/lib/m5206e\libc.a(lib_a-strtod.o)
                                  0xc (size before relaxing)
 .rodata.str1.1
                0x0206c7d9        0x4 c:/nburn/gcc-m68k/bin/../lib/gcc/m68k-elf/4.2.1/../../../../m68k-elf/lib/m5206e\libc.a(lib_a-tzvars.o)
 .rodata.str1.1
                0x0206c7dd       0x43 c:/nburn/gcc-m68k/bin/../lib/gcc/m68k-elf/4.2.1/../../../../m68k-elf/lib/m5206e\libc.a(lib_a-vfiprintf.o)
 .rodata.str1.1
                0x0206c820        0xc c:/nburn/gcc-m68k/bin/../lib/gcc/m68k-elf/4.2.1/../../../../m68k-elf/lib/m5206e\libc.a(lib_a-vfprintf.o)
                                 0x57 (size before relaxing)
 .rodata.str1.1
                0x0206c82c        0x5 c:/nburn/gcc-m68k/bin/../lib/gcc/m68k-elf/4.2.1/../../../../m68k-elf/lib/m5206e\libc.a(lib_a-vfscanf.o)
 .rodata.str1.1
                0x0206c831       0x1d c:/nburn/gcc-m68k/bin/../lib/gcc/m68k-elf/4.2.1/../../../../m68k-elf/lib/m5206e\libc.a(lib_a-wctomb_r.o)
 .rodata.str1.1
                0x0206c84e        0xd c:/nburn/gcc-m68k/bin/../lib/gcc/m68k-elf/4.2.1/../../../../m68k-elf/lib/m5206e\libc.a(lib_a-dtoa.o)
                                  0xf (size before relaxing)
 .rodata.str1.1
                0x0206c85b        0xb c:/nburn/gcc-m68k/bin/../lib/gcc/m68k-elf/4.2.1/../../../../m68k-elf/lib/m5206e\libc.a(lib_a-gdtoa-gethex.o)
                                 0x19 (size before relaxing)
 .rodata.str1.1
                0x0206c866        0xb c:/nburn/gcc-m68k/bin/../lib/gcc/m68k-elf/4.2.1/../../../../m68k-elf/lib/m5206e\libc.a(lib_a-locale.o)
                                 0x10 (size before relaxing)
 .rodata.str1.1
                0x00000000        0x1 c:/nburn/gcc-m68k/bin/../lib/gcc/m68k-elf/4.2.1/../../../../m68k-elf/lib/m5206e\libc.a(lib_a-mbrtowc.o)
 *(.gnu.linkonce.*)
 *(.gcc_except_table)
 .gcc_except_table
                0x0206c871       0xaf c:/nburn/gcc-m68k/bin/../lib/gcc/m68k-elf/4.2.1/../../../../m68k-elf/lib/m5206e\libstdc++.a(functexcept.o)
 .gcc_except_table
                0x0206c920       0x2d c:/nburn/gcc-m68k/bin/../lib/gcc/m68k-elf/4.2.1/../../../../m68k-elf/lib/m5206e\libstdc++.a(ios_failure.o)
 .gcc_except_table
                0x0206c94d       0x30 c:/nburn/gcc-m68k/bin/../lib/gcc/m68k-elf/4.2.1/../../../../m68k-elf/lib/m5206e\libstdc++.a(stdexcept.o)
 .gcc_except_table
                0x0206c97d       0xa9 c:/nburn/gcc-m68k/bin/../lib/gcc/m68k-elf/4.2.1/../../../../m68k-elf/lib/m5206e\libstdc++.a(string-inst.o)
 *fill*         0x0206ca26        0x2 00
 .gcc_except_table
                0x0206ca28       0x11 c:/nburn/gcc-m68k/bin/../lib/gcc/m68k-elf/4.2.1/../../../../m68k-elf/lib/m5206e\libstdc++.a(eh_catch.o)
 *fill*         0x0206ca39        0x3 00
 .gcc_except_table
                0x0206ca3c       0x18 c:/nburn/gcc-m68k/bin/../lib/gcc/m68k-elf/4.2.1/../../../../m68k-elf/lib/m5206e\libstdc++.a(eh_terminate.o)
 .gcc_except_table
                0x0206ca54       0x48 c:/nburn/gcc-m68k/bin/../lib/gcc/m68k-elf/4.2.1/../../../../m68k-elf/lib/m5206e\libstdc++.a(eh_personality.o)
 .gcc_except_table
                0x0206ca9c       0x15 c:/nburn/gcc-m68k/bin/../lib/gcc/m68k-elf/4.2.1/../../../../m68k-elf/lib/m5206e\libstdc++.a(eh_alloc.o)
 *fill*         0x0206cab1        0x3 00
 .gcc_except_table
                0x0206cab4       0x38 c:/nburn/gcc-m68k/bin/../lib/gcc/m68k-elf/4.2.1/../../../../m68k-elf/lib/m5206e\libstdc++.a(vterminate.o)
                0x0206caec                . = ALIGN (0x4)
                0x0206caec                __INIT_SECTION__ = .
                0x0206caec        0x4 LONG 0x4e560000
 *(.init)
 .init          0x0206caf0        0x6 c:/nburn/gcc-m68k/bin/../lib/gcc/m68k-elf/4.2.1/m5206e/crtbegin.o
 .init          0x0206caf6        0x6 c:/nburn/gcc-m68k/bin/../lib/gcc/m68k-elf/4.2.1/m5206e/crtend.o
                0x0206cafc        0x2 SHORT 0x4e5e
                0x0206cafe        0x2 SHORT 0x4e75
                0x0206cb00                . = ALIGN (0x4)
                0x0206cb00                __FINI_SECTION__ = .
                0x0206cb00        0x4 LONG 0x4e560000
 *(.fini)
 .fini          0x0206cb04        0x6 c:/nburn/gcc-m68k/bin/../lib/gcc/m68k-elf/4.2.1/m5206e/crtbegin.o
                0x0206cb0a        0x2 SHORT 0x4e5e
                0x0206cb0c        0x2 SHORT 0x4e75
 *(.lit)
                0x0206cb10                . = ALIGN (0x10)
 *fill*         0x0206cb0e        0x2 00
                0x0206cb10                _etext = .
                0x0206cb10                etext = .

.data           0x0206cb10     0x1870
                0x0206cb10                copy_start = .
 *(.shdata)
 *(.data)
 .data          0x0206cb10        0x4 c:/nburn/gcc-m68k/bin/../lib/gcc/m68k-elf/4.2.1/../../../../m68k-elf/lib/m5206e\nb-crt0.o
 .data          0x0206cb14        0x8 c:/nburn/gcc-m68k/bin/../lib/gcc/m68k-elf/4.2.1/m5206e/crtbegin.o
                0x0206cb14                __dso_handle
 .data          0x0206cb1c        0x0 utils.o
 .data          0x0206cb1c       0x14 services.o
                0x0206cb20                ControlService::prompt
                0x0206cb1c                ControlService::ctlName
                0x0206cb24                DataService::dataName
                0x0206cb2c                MessageService::msgName
                0x0206cb28                MonitorService::monName
 .data          0x0206cb30        0x0 observations.o
 .data          0x0206cb30        0x0 obs.o
 .data          0x0206cb30        0x4 main.o
                0x0206cb30                AppName
 .data          0x0206cb34        0x0 io.o
 .data          0x0206cb34        0x0 dhtml.o
 .data          0x0206cb34        0x0 data.o
 .data          0x0206cb34      0x108 control.o
                0x0206cb34                Correlator::statusEOF
                0x0206cb3c                Correlator::statusWARN
                0x0206cbc0                Correlator::monitorPointUnit
                0x0206cb40                Correlator::statusOK
                0x0206cb38                Correlator::statusERR
                0x0206cb44                Correlator::monitorPointName
 .data          0x0206cc3c        0x0 boot.o
 .data          0x0206cc3c      0xdce argus_io.o
                0x0206cc3c                inbuf
                0x0206d59a                thRead
                0x0206d6e0                dcm2Bpar
                0x0206d41a                cryoPar
                0x0206d492                vmSet
                0x0206cc42                ctlnVamp
                0x0206cc47                FPOn
                0x0206cc4a                rxPar
                0x0206d904                vanePar
                0x0206d580                pcRead
                0x0206d556                nvRead
                0x0206cc40                i2cBusBusy
                0x0206d80c                dcm2MBpar
                0x0206cc45                ctlVIF
                0x0206d478                vgSet
                0x0206d4ac                voSet
                0x0206d514                vmRead
                0x0206d43a                pwrCtrlPar
                0x0206cc43                ctlpVamp
                0x0206d564                vdsRead
                0x0206cc48                FPOff
                0x0206d5b4                dcm2Apar
                0x0206cc41                ctlVDS
                0x0206cc44                ctlVCC
                0x0206d4e0                idRead
                0x0206d86c                sbPar
                0x0206cc46                FPLED
                0x0206d45e                vdSet
                0x0206d4fa                vgRead
                0x0206d548                pvRead
                0x0206d37a                bcPar
                0x0206d830                dcm2sw
                0x0206d572                vccRead
                0x0206d4c6                vdRead
                0x0206d52e                imRead
 *fill*         0x0206da0a        0x2 00
 .data          0x0206da0c       0xa0 argus_control.o
                0x0206da50                vnames
                0x0206daa4                d1
                0x0206da0c                cnames
                0x0206daa8                d2
                0x0206da78                vanePos
                0x0206da28                sbnames
 .data          0x0206daac        0x0 C:\nburn/lib/MOD5270.a(bsp.o)
 .data          0x0206daac       0x20 C:\nburn/lib/MOD5270.a(ioboard.o)
 .data          0x0206dacc        0x0 C:\nburn/lib/MOD5270.a(pins.o)
 .data          0x0206dacc        0x1 C:\nburn/lib/MOD5270.a(i2cmulti.o)
                0x0206dacc                bRestartSlaveTX
 *fill*         0x0206dacd        0x3 00
 .data          0x0206dad0        0x0 C:\nburn/lib/NetBurner.a(ucosmcfa.o)
 .data          0x0206dad0        0x0 C:\nburn/lib/NetBurner.a(software_init.o)
 .data          0x0206dad0        0x0 C:\nburn/lib/NetBurner.a(ucosmcfc.o)
 .data          0x0206dad0        0x0 C:\nburn/lib/NetBurner.a(ucos.o)
 .data          0x0206dad0        0x0 C:\nburn/lib/NetBurner.a(ucosmain.o)
 .data          0x0206dad0        0x0 C:\nburn/lib/NetBurner.a(fileio.o)
 .data          0x0206dad0        0x0 C:\nburn/lib/NetBurner.a(system.o)
 .data          0x0206dad0        0x0 C:\nburn/lib/NetBurner.a(main.o)
 .data          0x0206dad0        0x0 C:\nburn/lib/NetBurner.a(utils.o)
 .data          0x0206dad0        0x0 C:\nburn/lib/NetBurner.a(ip.o)
 .data          0x0206dad0        0x0 C:\nburn/lib/NetBurner.a(buffers.o)
 .data          0x0206dad0        0x0 C:\nburn/lib/NetBurner.a(arp.o)
 .data          0x0206dad0        0x0 C:\nburn/lib/NetBurner.a(udp.o)
 .data          0x0206dad0        0x0 C:\nburn/lib/NetBurner.a(tcp.o)
 .data          0x0206dad0        0x0 C:\nburn/lib/NetBurner.a(http.o)
 .data          0x0206dad0        0x0 C:\nburn/lib/NetBurner.a(httpinternal.o)
 .data          0x0206dad0        0x0 C:\nburn/lib/NetBurner.a(htmldecomp.o)
 .data          0x0206dad0        0x0 C:\nburn/lib/NetBurner.a(htmlvarplaceholder.o)
 .data          0x0206dad0        0x0 C:\nburn/lib/NetBurner.a(iosys.o)
 .data          0x0206dad0        0x0 C:\nburn/lib/NetBurner.a(new_ops.o)
 .data          0x0206dad0        0x0 C:\nburn/lib/NetBurner.a(autoip.o)
 .data          0x0206dad0        0x0 C:\nburn/lib/NetBurner.a(dhcpc.o)
 .data          0x0206dad0        0x0 C:\nburn/lib/NetBurner.a(netinterface.o)
 .data          0x0206dad0        0x0 C:\nburn/lib/NetBurner.a(taskmon.o)
 .data          0x0206dad0        0x0 C:\nburn/lib/NetBurner.a(smarttrap.o)
 .data          0x0206dad0        0x0 C:\nburn/lib/NetBurner.a(autoupdate.o)
 .data          0x0206dad0        0x0 C:\nburn/lib/NetBurner.a(device.o)
 .data          0x0206dad0        0x0 C:\nburn/lib/MOD5270.a(serial.o)
 .data          0x0206dad0        0x2 C:\nburn/lib/MOD5270.a(ethernet.o)
                0x0206dad0                wait
 *fill*         0x0206dad2        0x2 00
 .data          0x0206dad4        0x0 C:\nburn/lib/MOD5270.a(etherprint.o)
 .data          0x0206dad4        0x0 C:\nburn/lib/MOD5270.a(emulticast.o)
 .data          0x0206dad4        0x0 C:\nburn/lib/NetBurner.a(extraio.o)
 .data          0x0206dad4        0x0 C:\nburn/lib/NetBurner.a(netrx.o)
 .data          0x0206dad4        0x0 c:/nburn/gcc-m68k/bin/../lib/gcc/m68k-elf/4.2.1/../../../../m68k-elf/lib/m5206e\libstdc++.a(functexcept.o)
 .data          0x0206dad4        0x0 c:/nburn/gcc-m68k/bin/../lib/gcc/m68k-elf/4.2.1/../../../../m68k-elf/lib/m5206e\libstdc++.a(ios_failure.o)
 .data          0x0206dad4        0x0 c:/nburn/gcc-m68k/bin/../lib/gcc/m68k-elf/4.2.1/../../../../m68k-elf/lib/m5206e\libstdc++.a(stdexcept.o)
 .data          0x0206dad4        0x0 c:/nburn/gcc-m68k/bin/../lib/gcc/m68k-elf/4.2.1/../../../../m68k-elf/lib/m5206e\libstdc++.a(tree.o)
 .data          0x0206dad4        0x0 c:/nburn/gcc-m68k/bin/../lib/gcc/m68k-elf/4.2.1/../../../../m68k-elf/lib/m5206e\libstdc++.a(string-inst.o)
 .data          0x0206dad4        0x0 c:/nburn/gcc-m68k/bin/../lib/gcc/m68k-elf/4.2.1/../../../../m68k-elf/lib/m5206e\libstdc++.a(eh_throw.o)
 .data          0x0206dad4        0x0 c:/nburn/gcc-m68k/bin/../lib/gcc/m68k-elf/4.2.1/../../../../m68k-elf/lib/m5206e\libstdc++.a(new_handler.o)
 .data          0x0206dad4        0x0 c:/nburn/gcc-m68k/bin/../lib/gcc/m68k-elf/4.2.1/../../../../m68k-elf/lib/m5206e\libstdc++.a(eh_globals.o)
 .data          0x0206dad4        0x0 c:/nburn/gcc-m68k/bin/../lib/gcc/m68k-elf/4.2.1/../../../../m68k-elf/lib/m5206e\libstdc++.a(eh_exception.o)
 .data          0x0206dad4        0x0 c:/nburn/gcc-m68k/bin/../lib/gcc/m68k-elf/4.2.1/../../../../m68k-elf/lib/m5206e\libstdc++.a(guard.o)
 .data          0x0206dad4        0x0 c:/nburn/gcc-m68k/bin/../lib/gcc/m68k-elf/4.2.1/../../../../m68k-elf/lib/m5206e\libstdc++.a(eh_catch.o)
 .data          0x0206dad4        0x0 c:/nburn/gcc-m68k/bin/../lib/gcc/m68k-elf/4.2.1/../../../../m68k-elf/lib/m5206e\libstdc++.a(eh_terminate.o)
 .data          0x0206dad4        0x0 c:/nburn/gcc-m68k/bin/../lib/gcc/m68k-elf/4.2.1/../../../../m68k-elf/lib/m5206e\libstdc++.a(bad_typeid.o)
 .data          0x0206dad4        0x0 c:/nburn/gcc-m68k/bin/../lib/gcc/m68k-elf/4.2.1/../../../../m68k-elf/lib/m5206e\libstdc++.a(del_op.o)
 .data          0x0206dad4        0x0 c:/nburn/gcc-m68k/bin/../lib/gcc/m68k-elf/4.2.1/../../../../m68k-elf/lib/m5206e\libstdc++.a(class_type_info.o)
 .data          0x0206dad4        0x0 c:/nburn/gcc-m68k/bin/../lib/gcc/m68k-elf/4.2.1/../../../../m68k-elf/lib/m5206e\libstdc++.a(eh_term_handler.o)
 .data          0x0206dad4        0x0 c:/nburn/gcc-m68k/bin/../lib/gcc/m68k-elf/4.2.1/../../../../m68k-elf/lib/m5206e\libstdc++.a(eh_personality.o)
 .data          0x0206dad4        0x0 c:/nburn/gcc-m68k/bin/../lib/gcc/m68k-elf/4.2.1/../../../../m68k-elf/lib/m5206e\libstdc++.a(pure.o)
 .data          0x0206dad4        0x0 c:/nburn/gcc-m68k/bin/../lib/gcc/m68k-elf/4.2.1/../../../../m68k-elf/lib/m5206e\libstdc++.a(eh_alloc.o)
 .data          0x0206dad4        0x0 c:/nburn/gcc-m68k/bin/../lib/gcc/m68k-elf/4.2.1/../../../../m68k-elf/lib/m5206e\libstdc++.a(bad_cast.o)
 .data          0x0206dad4        0x0 c:/nburn/gcc-m68k/bin/../lib/gcc/m68k-elf/4.2.1/../../../../m68k-elf/lib/m5206e\libstdc++.a(eh_unex_handler.o)
 .data          0x0206dad4        0x0 c:/nburn/gcc-m68k/bin/../lib/gcc/m68k-elf/4.2.1/../../../../m68k-elf/lib/m5206e\libstdc++.a(si_class_type_info.o)
 .data          0x0206dad4        0x0 c:/nburn/gcc-m68k/bin/../lib/gcc/m68k-elf/4.2.1/../../../../m68k-elf/lib/m5206e\libstdc++.a(vterminate.o)
 .data          0x0206dad4        0x0 c:/nburn/gcc-m68k/bin/../lib/gcc/m68k-elf/4.2.1/../../../../m68k-elf/lib/m5206e\libstdc++.a(eh_call.o)
 .data          0x0206dad4        0x0 c:/nburn/gcc-m68k/bin/../lib/gcc/m68k-elf/4.2.1/../../../../m68k-elf/lib/m5206e\libstdc++.a(cp-demangle.o)
 .data          0x0206dad4        0x0 c:/nburn/gcc-m68k/bin/../lib/gcc/m68k-elf/4.2.1/../../../../m68k-elf/lib/m5206e\libstdc++.a(tinfo.o)
 .data          0x0206dad4        0x0 c:/nburn/gcc-m68k/bin/../lib/gcc/m68k-elf/4.2.1/../../../../m68k-elf/lib/m5206e\libstdc++.a(eh_type.o)
 .data          0x0206dad4        0x0 c:/nburn/gcc-m68k/bin/../lib/gcc/m68k-elf/4.2.1/../../../../m68k-elf/lib/m5206e\libm.a(lib_a-s_round.o)
 .data          0x0206dad4        0x0 c:/nburn/gcc-m68k/bin/../lib/gcc/m68k-elf/4.2.1/../../../../m68k-elf/lib/m5206e\libm.a(lib_a-wf_asin.o)
 .data          0x0206dad4        0x0 c:/nburn/gcc-m68k/bin/../lib/gcc/m68k-elf/4.2.1/../../../../m68k-elf/lib/m5206e\libm.a(lib_a-wf_pow.o)
 .data          0x0206dad4        0x0 c:/nburn/gcc-m68k/bin/../lib/gcc/m68k-elf/4.2.1/../../../../m68k-elf/lib/m5206e\libm.a(lib_a-ef_asin.o)
 .data          0x0206dad4        0x0 c:/nburn/gcc-m68k/bin/../lib/gcc/m68k-elf/4.2.1/../../../../m68k-elf/lib/m5206e\libm.a(lib_a-ef_pow.o)
 .data          0x0206dad4        0x0 c:/nburn/gcc-m68k/bin/../lib/gcc/m68k-elf/4.2.1/../../../../m68k-elf/lib/m5206e\libm.a(lib_a-ef_sqrt.o)
 .data          0x0206dad4        0x0 c:/nburn/gcc-m68k/bin/../lib/gcc/m68k-elf/4.2.1/../../../../m68k-elf/lib/m5206e\libm.a(lib_a-sf_fabs.o)
 .data          0x0206dad4        0x0 c:/nburn/gcc-m68k/bin/../lib/gcc/m68k-elf/4.2.1/../../../../m68k-elf/lib/m5206e\libm.a(lib_a-sf_finite.o)
 .data          0x0206dad4        0x0 c:/nburn/gcc-m68k/bin/../lib/gcc/m68k-elf/4.2.1/../../../../m68k-elf/lib/m5206e\libm.a(lib_a-sf_isnan.o)
 .data          0x0206dad4        0x0 c:/nburn/gcc-m68k/bin/../lib/gcc/m68k-elf/4.2.1/../../../../m68k-elf/lib/m5206e\libm.a(lib_a-sf_scalbn.o)
 .data          0x0206dad4        0x4 c:/nburn/gcc-m68k/bin/../lib/gcc/m68k-elf/4.2.1/../../../../m68k-elf/lib/m5206e\libm.a(lib_a-s_lib_ver.o)
                0x0206dad4                __fdlib_version
 .data          0x0206dad8        0x0 c:/nburn/gcc-m68k/bin/../lib/gcc/m68k-elf/4.2.1/../../../../m68k-elf/lib/m5206e\libm.a(lib_a-s_matherr.o)
 .data          0x0206dad8        0x0 c:/nburn/gcc-m68k/bin/../lib/gcc/m68k-elf/4.2.1/../../../../m68k-elf/lib/m5206e\libm.a(lib_a-s_rint.o)
 .data          0x0206dad8        0x0 c:/nburn/gcc-m68k/bin/../lib/gcc/m68k-elf/4.2.1/../../../../m68k-elf/lib/m5206e\libm.a(lib_a-sf_copysign.o)
 .data          0x0206dad8        0x0 c:/nburn/gcc-m68k/bin/../lib/gcc/m68k-elf/4.2.1/m5206e\libgcc.a(_double.o)
 .data          0x0206dad8        0x0 c:/nburn/gcc-m68k/bin/../lib/gcc/m68k-elf/4.2.1/m5206e\libgcc.a(_float.o)
 .data          0x0206dad8       0x1c c:/nburn/gcc-m68k/bin/../lib/gcc/m68k-elf/4.2.1/m5206e\libgcc.a(_floatex.o)
                0x0206dad8                _fpCCR
 .data          0x0206daf4        0x0 c:/nburn/gcc-m68k/bin/../lib/gcc/m68k-elf/4.2.1/m5206e\libgcc.a(_nedf2.o)
 .data          0x0206daf4        0x0 c:/nburn/gcc-m68k/bin/../lib/gcc/m68k-elf/4.2.1/m5206e\libgcc.a(_gtdf2.o)
 .data          0x0206daf4        0x0 c:/nburn/gcc-m68k/bin/../lib/gcc/m68k-elf/4.2.1/m5206e\libgcc.a(_gedf2.o)
 .data          0x0206daf4        0x0 c:/nburn/gcc-m68k/bin/../lib/gcc/m68k-elf/4.2.1/m5206e\libgcc.a(_ltdf2.o)
 .data          0x0206daf4        0x0 c:/nburn/gcc-m68k/bin/../lib/gcc/m68k-elf/4.2.1/m5206e\libgcc.a(_ledf2.o)
 .data          0x0206daf4        0x0 c:/nburn/gcc-m68k/bin/../lib/gcc/m68k-elf/4.2.1/m5206e\libgcc.a(_eqsf2.o)
 .data          0x0206daf4        0x0 c:/nburn/gcc-m68k/bin/../lib/gcc/m68k-elf/4.2.1/m5206e\libgcc.a(_gtsf2.o)
 .data          0x0206daf4        0x0 c:/nburn/gcc-m68k/bin/../lib/gcc/m68k-elf/4.2.1/m5206e\libgcc.a(_gesf2.o)
 .data          0x0206daf4        0x0 c:/nburn/gcc-m68k/bin/../lib/gcc/m68k-elf/4.2.1/m5206e\libgcc.a(_ltsf2.o)
 .data          0x0206daf4        0x0 c:/nburn/gcc-m68k/bin/../lib/gcc/m68k-elf/4.2.1/m5206e\libgcc.a(_lesf2.o)
 .data          0x0206daf4        0x0 c:/nburn/gcc-m68k/bin/../lib/gcc/m68k-elf/4.2.1/m5206e\libgcc.a(_fixunssfsi.o)
 .data          0x0206daf4        0x0 c:/nburn/gcc-m68k/bin/../lib/gcc/m68k-elf/4.2.1/m5206e\libgcc.a(_fixunsdfsi.o)
 .data          0x0206daf4        0x0 c:/nburn/gcc-m68k/bin/../lib/gcc/m68k-elf/4.2.1/m5206e\libgcc.a(_fixdfdi.o)
 .data          0x0206daf4        0x0 c:/nburn/gcc-m68k/bin/../lib/gcc/m68k-elf/4.2.1/m5206e\libgcc.a(_fixunsdfdi.o)
 .data          0x0206daf4        0x0 c:/nburn/gcc-m68k/bin/../lib/gcc/m68k-elf/4.2.1/m5206e\libgcc.a(_udivdi3.o)
 .data          0x0206daf4        0x0 c:/nburn/gcc-m68k/bin/../lib/gcc/m68k-elf/4.2.1/m5206e\libgcc.a(_umoddi3.o)
 .data          0x0206daf4        0x0 c:/nburn/gcc-m68k/bin/../lib/gcc/m68k-elf/4.2.1/m5206e\libgcc.a(fpgnulib.o)
 .data          0x0206daf4        0x0 c:/nburn/gcc-m68k/bin/../lib/gcc/m68k-elf/4.2.1/m5206e\libgcc.a(unwind-dw2.o)
 .data          0x0206daf4        0x0 c:/nburn/gcc-m68k/bin/../lib/gcc/m68k-elf/4.2.1/m5206e\libgcc.a(unwind-dw2-fde.o)
 .data          0x0206daf4        0x0 c:/nburn/gcc-m68k/bin/../lib/gcc/m68k-elf/4.2.1/m5206e\libgcc.a(_clz.o)
 .data          0x0206daf4        0x0 c:/nburn/gcc-m68k/bin/../lib/gcc/m68k-elf/4.2.1/../../../../m68k-elf/lib/m5206e\libc.a(lib_a-abort.o)
 .data          0x0206daf4        0x0 c:/nburn/gcc-m68k/bin/../lib/gcc/m68k-elf/4.2.1/../../../../m68k-elf/lib/m5206e\libc.a(lib_a-atof.o)
 .data          0x0206daf4        0x0 c:/nburn/gcc-m68k/bin/../lib/gcc/m68k-elf/4.2.1/../../../../m68k-elf/lib/m5206e\libc.a(lib_a-atoi.o)
 .data          0x0206daf4        0x0 c:/nburn/gcc-m68k/bin/../lib/gcc/m68k-elf/4.2.1/../../../../m68k-elf/lib/m5206e\libc.a(lib_a-bsearch.o)
 .data          0x0206daf4        0x4 c:/nburn/gcc-m68k/bin/../lib/gcc/m68k-elf/4.2.1/../../../../m68k-elf/lib/m5206e\libc.a(lib_a-ctype_.o)
                0x0206daf4                __ctype_ptr
 .data          0x0206daf8        0x0 c:/nburn/gcc-m68k/bin/../lib/gcc/m68k-elf/4.2.1/../../../../m68k-elf/lib/m5206e\libc.a(lib_a-cxa_atexit.o)
 .data          0x0206daf8        0x0 c:/nburn/gcc-m68k/bin/../lib/gcc/m68k-elf/4.2.1/../../../../m68k-elf/lib/m5206e\libc.a(lib_a-div.o)
 .data          0x0206daf8        0x0 c:/nburn/gcc-m68k/bin/../lib/gcc/m68k-elf/4.2.1/../../../../m68k-elf/lib/m5206e\libc.a(lib_a-errno.o)
 .data          0x0206daf8        0x0 c:/nburn/gcc-m68k/bin/../lib/gcc/m68k-elf/4.2.1/../../../../m68k-elf/lib/m5206e\libc.a(lib_a-fdopen.o)
 .data          0x0206daf8        0x0 c:/nburn/gcc-m68k/bin/../lib/gcc/m68k-elf/4.2.1/../../../../m68k-elf/lib/m5206e\libc.a(lib_a-fflush.o)
 .data          0x0206daf8        0x0 c:/nburn/gcc-m68k/bin/../lib/gcc/m68k-elf/4.2.1/../../../../m68k-elf/lib/m5206e\libc.a(lib_a-findfp.o)
 .data          0x0206daf8        0x0 c:/nburn/gcc-m68k/bin/../lib/gcc/m68k-elf/4.2.1/../../../../m68k-elf/lib/m5206e\libc.a(lib_a-fiprintf.o)
 .data          0x0206daf8        0x0 c:/nburn/gcc-m68k/bin/../lib/gcc/m68k-elf/4.2.1/../../../../m68k-elf/lib/m5206e\libc.a(lib_a-flags.o)
 .data          0x0206daf8        0x0 c:/nburn/gcc-m68k/bin/../lib/gcc/m68k-elf/4.2.1/../../../../m68k-elf/lib/m5206e\libc.a(lib_a-fprintf.o)
 .data          0x0206daf8        0x0 c:/nburn/gcc-m68k/bin/../lib/gcc/m68k-elf/4.2.1/../../../../m68k-elf/lib/m5206e\libc.a(lib_a-fputc.o)
 .data          0x0206daf8        0x0 c:/nburn/gcc-m68k/bin/../lib/gcc/m68k-elf/4.2.1/../../../../m68k-elf/lib/m5206e\libc.a(lib_a-fputs.o)
 .data          0x0206daf8        0x0 c:/nburn/gcc-m68k/bin/../lib/gcc/m68k-elf/4.2.1/../../../../m68k-elf/lib/m5206e\libc.a(lib_a-fvwrite.o)
 .data          0x0206daf8        0x0 c:/nburn/gcc-m68k/bin/../lib/gcc/m68k-elf/4.2.1/../../../../m68k-elf/lib/m5206e\libc.a(lib_a-fwalk.o)
 .data          0x0206daf8        0x0 c:/nburn/gcc-m68k/bin/../lib/gcc/m68k-elf/4.2.1/../../../../m68k-elf/lib/m5206e\libc.a(lib_a-fwrite.o)
 .data          0x0206daf8        0x0 c:/nburn/gcc-m68k/bin/../lib/gcc/m68k-elf/4.2.1/../../../../m68k-elf/lib/m5206e\libc.a(lib_a-gmtime.o)
 .data          0x0206daf8        0x0 c:/nburn/gcc-m68k/bin/../lib/gcc/m68k-elf/4.2.1/../../../../m68k-elf/lib/m5206e\libc.a(lib_a-gmtime_r.o)
 .data          0x0206daf8      0x3f6 c:/nburn/gcc-m68k/bin/../lib/gcc/m68k-elf/4.2.1/../../../../m68k-elf/lib/m5206e\libc.a(lib_a-impure.o)
                0x0206daf8                _impure_ptr
 *fill*         0x0206deee        0x2 00
 .data          0x0206def0        0x0 c:/nburn/gcc-m68k/bin/../lib/gcc/m68k-elf/4.2.1/../../../../m68k-elf/lib/m5206e\libc.a(lib_a-iprintf.o)
 .data          0x0206def0        0x0 c:/nburn/gcc-m68k/bin/../lib/gcc/m68k-elf/4.2.1/../../../../m68k-elf/lib/m5206e\libc.a(lib_a-isprint.o)
 .data          0x0206def0        0x0 c:/nburn/gcc-m68k/bin/../lib/gcc/m68k-elf/4.2.1/../../../../m68k-elf/lib/m5206e\libc.a(lib_a-isspace.o)
 .data          0x0206def0        0x0 c:/nburn/gcc-m68k/bin/../lib/gcc/m68k-elf/4.2.1/../../../../m68k-elf/lib/m5206e\libc.a(lib_a-malloc.o)
 .data          0x0206def0      0x410 c:/nburn/gcc-m68k/bin/../lib/gcc/m68k-elf/4.2.1/../../../../m68k-elf/lib/m5206e\libc.a(lib_a-mallocr.o)
                0x0206e2fc                __malloc_sbrk_base
                0x0206def0                __malloc_av_
                0x0206e2f8                __malloc_trim_threshold
 .data          0x0206e300        0x0 c:/nburn/gcc-m68k/bin/../lib/gcc/m68k-elf/4.2.1/../../../../m68k-elf/lib/m5206e\libc.a(lib_a-memchr.o)
 .data          0x0206e300        0x0 c:/nburn/gcc-m68k/bin/../lib/gcc/m68k-elf/4.2.1/../../../../m68k-elf/lib/m5206e\libc.a(lib_a-memcmp.o)
 .data          0x0206e300        0x0 c:/nburn/gcc-m68k/bin/../lib/gcc/m68k-elf/4.2.1/../../../../m68k-elf/lib/m5206e\libc.a(lib_a-memmove.o)
 .data          0x0206e300        0x0 c:/nburn/gcc-m68k/bin/../lib/gcc/m68k-elf/4.2.1/../../../../m68k-elf/lib/m5206e\libc.a(lib_a-mktm_r.o)
 .data          0x0206e300        0x0 c:/nburn/gcc-m68k/bin/../lib/gcc/m68k-elf/4.2.1/../../../../m68k-elf/lib/m5206e\libc.a(lib_a-printf.o)
 .data          0x0206e300        0x0 c:/nburn/gcc-m68k/bin/../lib/gcc/m68k-elf/4.2.1/../../../../m68k-elf/lib/m5206e\libc.a(lib_a-putc.o)
 .data          0x0206e300        0x0 c:/nburn/gcc-m68k/bin/../lib/gcc/m68k-elf/4.2.1/../../../../m68k-elf/lib/m5206e\libc.a(lib_a-puts.o)
 .data          0x0206e300        0x0 c:/nburn/gcc-m68k/bin/../lib/gcc/m68k-elf/4.2.1/../../../../m68k-elf/lib/m5206e\libc.a(lib_a-rand.o)
 .data          0x0206e300        0x0 c:/nburn/gcc-m68k/bin/../lib/gcc/m68k-elf/4.2.1/../../../../m68k-elf/lib/m5206e\libc.a(lib_a-realloc.o)
 .data          0x0206e300        0x0 c:/nburn/gcc-m68k/bin/../lib/gcc/m68k-elf/4.2.1/../../../../m68k-elf/lib/m5206e\libc.a(lib_a-reallocr.o)
 .data          0x0206e300        0x0 c:/nburn/gcc-m68k/bin/../lib/gcc/m68k-elf/4.2.1/../../../../m68k-elf/lib/m5206e\libc.a(lib_a-rget.o)
 .data          0x0206e300        0x0 c:/nburn/gcc-m68k/bin/../lib/gcc/m68k-elf/4.2.1/../../../../m68k-elf/lib/m5206e\libc.a(lib_a-setvbuf.o)
 .data          0x0206e300        0x0 c:/nburn/gcc-m68k/bin/../lib/gcc/m68k-elf/4.2.1/../../../../m68k-elf/lib/m5206e\libc.a(lib_a-signal.o)
 .data          0x0206e300        0x0 c:/nburn/gcc-m68k/bin/../lib/gcc/m68k-elf/4.2.1/../../../../m68k-elf/lib/m5206e\libc.a(lib_a-signalr.o)
 .data          0x0206e300        0x0 c:/nburn/gcc-m68k/bin/../lib/gcc/m68k-elf/4.2.1/../../../../m68k-elf/lib/m5206e\libc.a(lib_a-siprintf.o)
 .data          0x0206e300        0x0 c:/nburn/gcc-m68k/bin/../lib/gcc/m68k-elf/4.2.1/../../../../m68k-elf/lib/m5206e\libc.a(lib_a-sprintf.o)
 .data          0x0206e300        0x0 c:/nburn/gcc-m68k/bin/../lib/gcc/m68k-elf/4.2.1/../../../../m68k-elf/lib/m5206e\libc.a(lib_a-sscanf.o)
 .data          0x0206e300        0x0 c:/nburn/gcc-m68k/bin/../lib/gcc/m68k-elf/4.2.1/../../../../m68k-elf/lib/m5206e\libc.a(lib_a-stdio.o)
 .data          0x0206e300        0x0 c:/nburn/gcc-m68k/bin/../lib/gcc/m68k-elf/4.2.1/../../../../m68k-elf/lib/m5206e\libc.a(lib_a-strcasecmp.o)
 .data          0x0206e300        0x0 c:/nburn/gcc-m68k/bin/../lib/gcc/m68k-elf/4.2.1/../../../../m68k-elf/lib/m5206e\libc.a(lib_a-strcat.o)
 .data          0x0206e300        0x0 c:/nburn/gcc-m68k/bin/../lib/gcc/m68k-elf/4.2.1/../../../../m68k-elf/lib/m5206e\libc.a(lib_a-strchr.o)
 .data          0x0206e300        0x0 c:/nburn/gcc-m68k/bin/../lib/gcc/m68k-elf/4.2.1/../../../../m68k-elf/lib/m5206e\libc.a(lib_a-strcmp.o)
 .data          0x0206e300        0x0 c:/nburn/gcc-m68k/bin/../lib/gcc/m68k-elf/4.2.1/../../../../m68k-elf/lib/m5206e\libc.a(lib_a-strcpy.o)
 .data          0x0206e300        0x0 c:/nburn/gcc-m68k/bin/../lib/gcc/m68k-elf/4.2.1/../../../../m68k-elf/lib/m5206e\libc.a(lib_a-strlen.o)
 .data          0x0206e300        0x0 c:/nburn/gcc-m68k/bin/../lib/gcc/m68k-elf/4.2.1/../../../../m68k-elf/lib/m5206e\libc.a(lib_a-strncmp.o)
 .data          0x0206e300        0x0 c:/nburn/gcc-m68k/bin/../lib/gcc/m68k-elf/4.2.1/../../../../m68k-elf/lib/m5206e\libc.a(lib_a-strncpy.o)
 .data          0x0206e300        0x0 c:/nburn/gcc-m68k/bin/../lib/gcc/m68k-elf/4.2.1/../../../../m68k-elf/lib/m5206e\libc.a(lib_a-strspn.o)
 .data          0x0206e300        0x0 c:/nburn/gcc-m68k/bin/../lib/gcc/m68k-elf/4.2.1/../../../../m68k-elf/lib/m5206e\libc.a(lib_a-strstr.o)
 .data          0x0206e300       0x28 c:/nburn/gcc-m68k/bin/../lib/gcc/m68k-elf/4.2.1/../../../../m68k-elf/lib/m5206e\libc.a(lib_a-strtod.o)
 .data          0x0206e328        0x0 c:/nburn/gcc-m68k/bin/../lib/gcc/m68k-elf/4.2.1/../../../../m68k-elf/lib/m5206e\libc.a(lib_a-strtok_r.o)
 .data          0x0206e328        0x0 c:/nburn/gcc-m68k/bin/../lib/gcc/m68k-elf/4.2.1/../../../../m68k-elf/lib/m5206e\libc.a(lib_a-strtol.o)
 .data          0x0206e328        0x0 c:/nburn/gcc-m68k/bin/../lib/gcc/m68k-elf/4.2.1/../../../../m68k-elf/lib/m5206e\libc.a(lib_a-tolower.o)
 .data          0x0206e328        0x0 c:/nburn/gcc-m68k/bin/../lib/gcc/m68k-elf/4.2.1/../../../../m68k-elf/lib/m5206e\libc.a(lib_a-toupper.o)
 .data          0x0206e328        0x8 c:/nburn/gcc-m68k/bin/../lib/gcc/m68k-elf/4.2.1/../../../../m68k-elf/lib/m5206e\libc.a(lib_a-tzvars.o)
                0x0206e328                _tzname
 .data          0x0206e330        0x0 c:/nburn/gcc-m68k/bin/../lib/gcc/m68k-elf/4.2.1/../../../../m68k-elf/lib/m5206e\libc.a(lib_a-vfiprintf.o)
 .data          0x0206e330        0x0 c:/nburn/gcc-m68k/bin/../lib/gcc/m68k-elf/4.2.1/../../../../m68k-elf/lib/m5206e\libc.a(lib_a-vfprintf.o)
 .data          0x0206e330        0x0 c:/nburn/gcc-m68k/bin/../lib/gcc/m68k-elf/4.2.1/../../../../m68k-elf/lib/m5206e\libc.a(lib_a-vfscanf.o)
 .data          0x0206e330        0x0 c:/nburn/gcc-m68k/bin/../lib/gcc/m68k-elf/4.2.1/../../../../m68k-elf/lib/m5206e\libc.a(lib_a-wbuf.o)
 .data          0x0206e330        0x0 c:/nburn/gcc-m68k/bin/../lib/gcc/m68k-elf/4.2.1/../../../../m68k-elf/lib/m5206e\libc.a(lib_a-wcrtomb.o)
 .data          0x0206e330        0x0 c:/nburn/gcc-m68k/bin/../lib/gcc/m68k-elf/4.2.1/../../../../m68k-elf/lib/m5206e\libc.a(lib_a-wcsrtombs.o)
 .data          0x0206e330        0x0 c:/nburn/gcc-m68k/bin/../lib/gcc/m68k-elf/4.2.1/../../../../m68k-elf/lib/m5206e\libc.a(lib_a-wctomb_r.o)
 .data          0x0206e330        0x0 c:/nburn/gcc-m68k/bin/../lib/gcc/m68k-elf/4.2.1/../../../../m68k-elf/lib/m5206e\libc.a(lib_a-writer.o)
 .data          0x0206e330        0x0 c:/nburn/gcc-m68k/bin/../lib/gcc/m68k-elf/4.2.1/../../../../m68k-elf/lib/m5206e\libc.a(lib_a-wsetup.o)
 .data          0x0206e330        0x0 c:/nburn/gcc-m68k/bin/../lib/gcc/m68k-elf/4.2.1/../../../../m68k-elf/lib/m5206e\libc.a(lib_a-__atexit.o)
 .data          0x0206e330        0x0 c:/nburn/gcc-m68k/bin/../lib/gcc/m68k-elf/4.2.1/../../../../m68k-elf/lib/m5206e\libc.a(lib_a-closer.o)
 .data          0x0206e330        0x0 c:/nburn/gcc-m68k/bin/../lib/gcc/m68k-elf/4.2.1/../../../../m68k-elf/lib/m5206e\libc.a(lib_a-dtoa.o)
 .data          0x0206e330        0x0 c:/nburn/gcc-m68k/bin/../lib/gcc/m68k-elf/4.2.1/../../../../m68k-elf/lib/m5206e\libc.a(lib_a-fclose.o)
 .data          0x0206e330        0x0 c:/nburn/gcc-m68k/bin/../lib/gcc/m68k-elf/4.2.1/../../../../m68k-elf/lib/m5206e\libc.a(lib_a-fread.o)
 .data          0x0206e330        0x0 c:/nburn/gcc-m68k/bin/../lib/gcc/m68k-elf/4.2.1/../../../../m68k-elf/lib/m5206e\libc.a(lib_a-freer.o)
 .data          0x0206e330        0x0 c:/nburn/gcc-m68k/bin/../lib/gcc/m68k-elf/4.2.1/../../../../m68k-elf/lib/m5206e\libc.a(lib_a-gdtoa-gethex.o)
 .data          0x0206e330        0x0 c:/nburn/gcc-m68k/bin/../lib/gcc/m68k-elf/4.2.1/../../../../m68k-elf/lib/m5206e\libc.a(lib_a-gdtoa-hexnan.o)
 .data          0x0206e330       0x3c c:/nburn/gcc-m68k/bin/../lib/gcc/m68k-elf/4.2.1/../../../../m68k-elf/lib/m5206e\libc.a(lib_a-gettzinfo.o)
 .data          0x0206e36c        0x0 c:/nburn/gcc-m68k/bin/../lib/gcc/m68k-elf/4.2.1/../../../../m68k-elf/lib/m5206e\libc.a(lib_a-iswspace.o)
 .data          0x0206e36c       0x10 c:/nburn/gcc-m68k/bin/../lib/gcc/m68k-elf/4.2.1/../../../../m68k-elf/lib/m5206e\libc.a(lib_a-locale.o)
                0x0206e36c                __mb_cur_max
                0x0206e370                __lc_ctype
 .data          0x0206e37c        0x0 c:/nburn/gcc-m68k/bin/../lib/gcc/m68k-elf/4.2.1/../../../../m68k-elf/lib/m5206e\libc.a(lib_a-lseekr.o)
 .data          0x0206e37c        0x0 c:/nburn/gcc-m68k/bin/../lib/gcc/m68k-elf/4.2.1/../../../../m68k-elf/lib/m5206e\libc.a(lib_a-makebuf.o)
 .data          0x0206e37c        0x0 c:/nburn/gcc-m68k/bin/../lib/gcc/m68k-elf/4.2.1/../../../../m68k-elf/lib/m5206e\libc.a(lib_a-mbrtowc.o)
 .data          0x0206e37c        0x0 c:/nburn/gcc-m68k/bin/../lib/gcc/m68k-elf/4.2.1/../../../../m68k-elf/lib/m5206e\libc.a(lib_a-mbtowc_r.o)
 .data          0x0206e37c        0x0 c:/nburn/gcc-m68k/bin/../lib/gcc/m68k-elf/4.2.1/../../../../m68k-elf/lib/m5206e\libc.a(lib_a-mprec.o)
 .data          0x0206e37c        0x0 c:/nburn/gcc-m68k/bin/../lib/gcc/m68k-elf/4.2.1/../../../../m68k-elf/lib/m5206e\libc.a(lib_a-readr.o)
 .data          0x0206e37c        0x0 c:/nburn/gcc-m68k/bin/../lib/gcc/m68k-elf/4.2.1/../../../../m68k-elf/lib/m5206e\libc.a(lib_a-refill.o)
 .data          0x0206e37c        0x0 c:/nburn/gcc-m68k/bin/../lib/gcc/m68k-elf/4.2.1/../../../../m68k-elf/lib/m5206e\libc.a(lib_a-sccl.o)
 .data          0x0206e37c        0x0 c:/nburn/gcc-m68k/bin/../lib/gcc/m68k-elf/4.2.1/../../../../m68k-elf/lib/m5206e\libc.a(lib_a-sf_nan.o)
 .data          0x0206e37c        0x0 c:/nburn/gcc-m68k/bin/../lib/gcc/m68k-elf/4.2.1/../../../../m68k-elf/lib/m5206e\libc.a(lib_a-s_isinfd.o)
 .data          0x0206e37c        0x0 c:/nburn/gcc-m68k/bin/../lib/gcc/m68k-elf/4.2.1/../../../../m68k-elf/lib/m5206e\libc.a(lib_a-s_isnand.o)
 .data          0x0206e37c        0x0 c:/nburn/gcc-m68k/bin/../lib/gcc/m68k-elf/4.2.1/../../../../m68k-elf/lib/m5206e\libc.a(lib_a-strtoll_r.o)
 .data          0x0206e37c        0x0 c:/nburn/gcc-m68k/bin/../lib/gcc/m68k-elf/4.2.1/../../../../m68k-elf/lib/m5206e\libc.a(lib_a-strtoull_r.o)
 .data          0x0206e37c        0x0 c:/nburn/gcc-m68k/bin/../lib/gcc/m68k-elf/4.2.1/../../../../m68k-elf/lib/m5206e\libc.a(lib_a-strtoul.o)
 .data          0x0206e37c        0x0 c:/nburn/gcc-m68k/bin/../lib/gcc/m68k-elf/4.2.1/../../../../m68k-elf/lib/m5206e\libc.a(lib_a-ungetc.o)
 .data          0x0206e37c        0x0 c:/nburn/gcc-m68k/bin/../lib/gcc/m68k-elf/4.2.1/../../../../m68k-elf/lib/m5206e\libc.a(lib_a-callocr.o)
 .data          0x0206e37c        0x0 c:/nburn/gcc-m68k/bin/../lib/gcc/m68k-elf/4.2.1/../../../../m68k-elf/lib/m5206e\libc.a(lib_a-fstatr.o)
 .data          0x0206e37c        0x0 c:/nburn/gcc-m68k/bin/../lib/gcc/m68k-elf/4.2.1/m5206e\libgcc.a(_eqdf2.o)
 .data          0x0206e37c        0x0 c:/nburn/gcc-m68k/bin/../lib/gcc/m68k-elf/4.2.1/m5206e\libgcc.a(_nesf2.o)
 .data          0x0206e37c        0x0 c:/nburn/gcc-m68k/bin/../lib/gcc/m68k-elf/4.2.1/m5206e\libgcc.a(_muldi3.o)
 .data          0x0206e37c        0x0 c:/nburn/gcc-m68k/bin/../lib/gcc/m68k-elf/4.2.1/m5206e/crtend.o
                0x0206e380                . = ALIGN (0x10)
 *fill*         0x0206e37c        0x4 00
                0x0206e380                _edata = .
                0x0206e380                copy_end = .

.jcr            0x0206e380        0x4
 .jcr           0x0206e380        0x0 c:/nburn/gcc-m68k/bin/../lib/gcc/m68k-elf/4.2.1/m5206e/crtbegin.o
 .jcr           0x0206e380        0x4 c:/nburn/gcc-m68k/bin/../lib/gcc/m68k-elf/4.2.1/m5206e/crtend.o

.data._ZN10__cxxabiv119__terminate_handlerE
                0x0206e384        0x4
 .data._ZN10__cxxabiv119__terminate_handlerE
                0x0206e384        0x4 c:/nburn/gcc-m68k/bin/../lib/gcc/m68k-elf/4.2.1/../../../../m68k-elf/lib/m5206e\libstdc++.a(eh_term_handler.o)
                0x0206e384                __cxxabiv1::__terminate_handler

.data._ZN10__cxxabiv120__unexpected_handlerE
                0x0206e388        0x4
 .data._ZN10__cxxabiv120__unexpected_handlerE
                0x0206e388        0x4 c:/nburn/gcc-m68k/bin/../lib/gcc/m68k-elf/4.2.1/../../../../m68k-elf/lib/m5206e\libstdc++.a(eh_unex_handler.o)
                0x0206e388                __cxxabiv1::__unexpected_handler

.bss            0x0206e390   0x12c0dc
                0x0206e390                . = ALIGN (0x4)
                0x0206e390                __bss_start = .
 *(.shbss)
 *(.bss)
 .bss           0x0206e390        0x0 c:/nburn/gcc-m68k/bin/../lib/gcc/m68k-elf/4.2.1/../../../../m68k-elf/lib/m5206e\nb-crt0.o
 .bss           0x0206e390       0x1a c:/nburn/gcc-m68k/bin/../lib/gcc/m68k-elf/4.2.1/m5206e/crtbegin.o
 *fill*         0x0206e3aa        0x2 00
 .bss           0x0206e3ac       0x20 utils.o
 .bss           0x0206e3cc        0x0 services.o
 .bss           0x0206e3cc        0x0 observations.o
 .bss           0x0206e3cc    0x805a4 obs.o
 .bss           0x020ee970    0x2c27a main.o
                0x020ee970                zpectrometer
                0x0211abd0                zpecShell
 *fill*         0x0211abea        0x2 00
 .bss           0x0211abec        0x0 io.o
 .bss           0x0211abec        0x0 dhtml.o
 .bss           0x0211abec        0x0 data.o
 .bss           0x0211abec       0x20 control.o
 .bss           0x0211ac0c        0x0 boot.o
 .bss           0x0211ac0c       0xec argus_io.o
                0x0211acf2                powStatus
                0x0211aca0                vaneV2Deg
                0x0211ac96                lnaPSlimitsBypass
                0x0211ac8c                address
                0x0211aca8                busNoLockCtr
                0x0211acae                freezeCtr
                0x0211ac8e                I2CStat
                0x0211acc2                chSetPtr
                0x0211ac97                lnaLimitsBypass
                0x0211acb6                freezeErrCtr
                0x0211aca4                busLockCtr
                0x0211acb2                thawCtr
                0x0211ac4c                I2CInputBuffer
                0x0211ac0c                buffer
                0x0211acca                biasSatus
                0x0211acf4                foundLNAbiasSys
                0x0211ac92                lnaPwrState
                0x0211ac98                gvdiv
                0x0211acc6                chReadPtr
                0x0211ac9c                vaneOffset
                0x0211acba                i2cState
                0x0211acac                freezeSys
 .bss           0x0211acf8     0x3400 argus_control.o
                0x0211daf8                str7
                0x0211acf8                outStr
                0x0211d4f8                str4
                0x0211d2f8                str3
                0x0211dcf8                str8
                0x0211d6f8                str5
                0x0211cef8                str1
                0x0211d8f8                str6
                0x0211def8                str9
                0x0211d0f8                str2
                0x0211ccf8                str0
 .bss           0x0211e0f8        0x0 C:\nburn/lib/MOD5270.a(bsp.o)
 .bss           0x0211e0f8        0x3 C:\nburn/lib/MOD5270.a(ioboard.o)
 *fill*         0x0211e0fb        0x1 00
 .bss           0x0211e0fc        0x2 C:\nburn/lib/MOD5270.a(pins.o)
                0x0211e0fd                J2
                0x0211e0fc                J1
 *fill*         0x0211e0fe        0x2 00
 .bss           0x0211e100       0xd9 C:\nburn/lib/MOD5270.a(i2cmulti.o)
                0x0211e1d7                RnW
                0x0211e1b4                pI2CRec
                0x0211e104                I2C_SlaveTX_NAK_Callback
                0x0211e1d6                bLastTX
                0x0211e100                I2C_SlaveTX_Callback
                0x0211e1b8                I2C_TX_Semaphore
                0x0211e1d8                bRestarted
                0x0211e108                I2C_SlaveRX_Callback
                0x0211e14d                I2CSlaveTXBuf
                0x0211e18e                I2CSlaveRec
                0x0211e1d5                dummy
                0x0211e10c                I2CSlaveRXBuf
                0x0211e1d4                INT_STATUS
                0x0211e1c6                I2C_RX_Semaphore
 *fill*         0x0211e1d9        0x3 00
 .bss           0x0211e1dc        0x0 C:\nburn/lib/NetBurner.a(ucosmcfa.o)
 .bss           0x0211e1dc        0x0 C:\nburn/lib/NetBurner.a(software_init.o)
 .bss           0x0211e1dc        0x0 C:\nburn/lib/NetBurner.a(ucosmcfc.o)
 .bss           0x0211e1dc        0x0 C:\nburn/lib/NetBurner.a(ucos.o)
 .bss           0x0211e1dc        0x4 C:\nburn/lib/NetBurner.a(ucosmain.o)
 .bss           0x0211e1e0        0x0 C:\nburn/lib/NetBurner.a(fileio.o)
 .bss           0x0211e1e0        0x4 C:\nburn/lib/NetBurner.a(system.o)
                0x0211e1e0                rnd_cnt
 .bss           0x0211e1e4        0x0 C:\nburn/lib/NetBurner.a(main.o)
 .bss           0x0211e1e4       0x56 C:\nburn/lib/NetBurner.a(utils.o)
                0x0211e1ea                frames_rx_err
                0x0211e1fa                frames_rx_icmp
                0x0211e208                enet_last_errhw
                0x0211e1f0                frames_tx_udp
                0x0211e1e4                frames_tx
                0x0211e1f8                frames_tx_icmp
                0x0211e1f6                frames_rx_tcp
                0x0211e206                enet_last_errlw
                0x0211e1ee                frames_tx_arp
                0x0211e1e6                frames_rx
                0x0211e204                frames_rx_ppp_errors
                0x0211e20a                ip_last_err
                0x0211e20e                frames_rx_unknown
                0x0211e1f2                frames_rx_udp
                0x0211e1e8                frames_tx_err
                0x0211e20c                enet_isr
                0x0211e200                frames_udp_errors
                0x0211e1fe                frames_ip_discard
                0x0211e210                frames_rx_fragment
                0x0211e212                static_buffer
                0x0211e1f4                frames_tx_tcp
                0x0211e1ec                frames_rx_arp
                0x0211e1fc                frames_ip_errors
                0x0211e202                frames_tcp_errors
 *fill*         0x0211e23a        0x2 00
 .bss           0x0211e23c        0xa C:\nburn/lib/NetBurner.a(ip.o)
                0x0211e23c                ip_errs
 *fill*         0x0211e246        0xa 00
 .bss           0x0211e250    0x6b010 C:\nburn/lib/NetBurner.a(buffers.o)
                0x0211e250                LastHead
 .bss           0x02189260     0x1e20 C:\nburn/lib/NetBurner.a(arp.o)
                0x02189270                wArpLifetime
                0x02189260                ARP_critical_section
 .bss           0x0218b080        0x8 C:\nburn/lib/NetBurner.a(udp.o)
                0x0218b080                ipsetup_authenticate_func
                0x0218b084                AutoUpdatePtr
 .bss           0x0218b088     0x2036 C:\nburn/lib/NetBurner.a(tcp.o)
                0x0218ca74                ShortSockets
                0x0218d0b4                LastShortFree
                0x0218ca2a                semiactive_list
                0x0218b088                sockets
                0x0218ca24                listen_list_head
                0x0218ca28                active_list
                0x0218c988                m_slist
                0x0218ca20                user_closed_list_head
                0x0218ca1c                free_list_head
 *fill*         0x0218d0be        0x2 00
 .bss           0x0218d0c0     0x2024 C:\nburn/lib/NetBurner.a(http.o)
                0x0218f0c0                HTTP_Socket_FileRec
                0x0218d0c0                HTTPStk
 .bss           0x0218f0e4     0x277c C:\nburn/lib/NetBurner.a(httpinternal.o)
                0x0218f0f0                TheMultipartHandler
                0x0218f0ec                TheHeadHandler
                0x0218f0e4                ThePostHandler
                0x0218f0f8                TheErrorHandler
                0x0218f0f4                TheMultipartExtractHandler
                0x0219180e                b_InMultipart
                0x0218f0fc                http_rxBuffer
                0x02191810                tip_buffer
                0x0218f0e8                TheGetHandler
 .bss           0x02191860        0x0 C:\nburn/lib/NetBurner.a(htmldecomp.o)
 .bss           0x02191860        0x0 C:\nburn/lib/NetBurner.a(htmlvarplaceholder.o)
 .bss           0x02191860        0x0 C:\nburn/lib/NetBurner.a(iosys.o)
 .bss           0x02191860        0x0 C:\nburn/lib/NetBurner.a(new_ops.o)
 .bss           0x02191860        0x8 C:\nburn/lib/NetBurner.a(autoip.o)
                0x02191860                AutoIPClient::staticNextTick
 .bss           0x02191868       0x18 C:\nburn/lib/NetBurner.a(dhcpc.o)
                0x02191868                AddDhcpOptionsFunc
                0x0219186c                AddDhcpFieldsFunc
                0x02191870                ParseDhcpOptions
                0x02191874                pDHCPOfferName
                0x02191878                DHCPDiscoverSeconds
 .bss           0x02191880       0x60 C:\nburn/lib/NetBurner.a(netinterface.o)
                0x02191894                FirstInterFaceIP
                0x0219189c                FirstInterFaceGate
                0x02191898                FirstInterFaceMask
                0x02191884                pPacketfunc
                0x02191880                pArpFunc
                0x02191888                ENET_BCAST
                0x0219188e                ENET_ZERO
                0x021918a0                FirstInterFaceDNS
 .bss           0x021918e0     0x1004 C:\nburn/lib/NetBurner.a(taskmon.o)
 .bss           0x021928e4      0x406 C:\nburn/lib/NetBurner.a(smarttrap.o)
 *fill*         0x02192cea        0x2 00
 .bss           0x02192cec       0x10 C:\nburn/lib/NetBurner.a(autoupdate.o)
                0x02192cf8                watchdog_service_function
                0x02192cf4                update_shutdown_func
                0x02192cec                pCurRecord
                0x02192cf0                update_authenticate_func
 .bss           0x02192cfc       0x1c C:\nburn/lib/NetBurner.a(device.o)
                0x02192cfc                DeviceQspiSem
                0x02192d0a                DeviceI2cSem
 .bss           0x02192d18       0xf2 C:\nburn/lib/MOD5270.a(serial.o)
                0x02192d18                UartData
                0x02192df6                Third_Ioexp
 *fill*         0x02192e0a        0x2 00
 .bss           0x02192e0c       0x6e C:\nburn/lib/MOD5270.a(ethernet.o)
                0x02192e1c                EtherLinkCallback
                0x02192e24                phy_read_mdata11
                0x02192e14                bNewLink
                0x02192e10                bEth100Mb
                0x02192e28                AutoTimeOut
                0x02192e20                phy_read_mdata1
                0x02192e2c                v
                0x02192e18                bOldDuplex
                0x02192e30                DONT_HANG
                0x02192e34                EthernetBlock
                0x02192e0c                bEthDuplex
 *fill*         0x02192e7a        0x2 00
 .bss           0x02192e7c        0x0 C:\nburn/lib/MOD5270.a(etherprint.o)
 .bss           0x02192e7c      0x100 C:\nburn/lib/MOD5270.a(emulticast.o)
 .bss           0x02192f7c       0xee C:\nburn/lib/NetBurner.a(extraio.o)
 *fill*         0x0219306a        0x2 00
 .bss           0x0219306c        0x0 C:\nburn/lib/NetBurner.a(netrx.o)
 .bss           0x0219306c        0x0 c:/nburn/gcc-m68k/bin/../lib/gcc/m68k-elf/4.2.1/../../../../m68k-elf/lib/m5206e\libstdc++.a(functexcept.o)
 .bss           0x0219306c        0x0 c:/nburn/gcc-m68k/bin/../lib/gcc/m68k-elf/4.2.1/../../../../m68k-elf/lib/m5206e\libstdc++.a(ios_failure.o)
 .bss           0x0219306c        0x0 c:/nburn/gcc-m68k/bin/../lib/gcc/m68k-elf/4.2.1/../../../../m68k-elf/lib/m5206e\libstdc++.a(stdexcept.o)
 .bss           0x0219306c        0x0 c:/nburn/gcc-m68k/bin/../lib/gcc/m68k-elf/4.2.1/../../../../m68k-elf/lib/m5206e\libstdc++.a(tree.o)
 .bss           0x0219306c        0x0 c:/nburn/gcc-m68k/bin/../lib/gcc/m68k-elf/4.2.1/../../../../m68k-elf/lib/m5206e\libstdc++.a(string-inst.o)
 .bss           0x0219306c        0x0 c:/nburn/gcc-m68k/bin/../lib/gcc/m68k-elf/4.2.1/../../../../m68k-elf/lib/m5206e\libstdc++.a(eh_throw.o)
 .bss           0x0219306c        0x0 c:/nburn/gcc-m68k/bin/../lib/gcc/m68k-elf/4.2.1/../../../../m68k-elf/lib/m5206e\libstdc++.a(new_handler.o)
 .bss           0x0219306c        0x0 c:/nburn/gcc-m68k/bin/../lib/gcc/m68k-elf/4.2.1/../../../../m68k-elf/lib/m5206e\libstdc++.a(eh_globals.o)
 .bss           0x0219306c        0x0 c:/nburn/gcc-m68k/bin/../lib/gcc/m68k-elf/4.2.1/../../../../m68k-elf/lib/m5206e\libstdc++.a(eh_exception.o)
 .bss           0x0219306c        0x0 c:/nburn/gcc-m68k/bin/../lib/gcc/m68k-elf/4.2.1/../../../../m68k-elf/lib/m5206e\libstdc++.a(guard.o)
 .bss           0x0219306c        0x0 c:/nburn/gcc-m68k/bin/../lib/gcc/m68k-elf/4.2.1/../../../../m68k-elf/lib/m5206e\libstdc++.a(eh_catch.o)
 .bss           0x0219306c        0x0 c:/nburn/gcc-m68k/bin/../lib/gcc/m68k-elf/4.2.1/../../../../m68k-elf/lib/m5206e\libstdc++.a(eh_terminate.o)
 .bss           0x0219306c        0x0 c:/nburn/gcc-m68k/bin/../lib/gcc/m68k-elf/4.2.1/../../../../m68k-elf/lib/m5206e\libstdc++.a(bad_typeid.o)
 .bss           0x0219306c        0x0 c:/nburn/gcc-m68k/bin/../lib/gcc/m68k-elf/4.2.1/../../../../m68k-elf/lib/m5206e\libstdc++.a(del_op.o)
 .bss           0x0219306c        0x0 c:/nburn/gcc-m68k/bin/../lib/gcc/m68k-elf/4.2.1/../../../../m68k-elf/lib/m5206e\libstdc++.a(class_type_info.o)
 .bss           0x0219306c        0x0 c:/nburn/gcc-m68k/bin/../lib/gcc/m68k-elf/4.2.1/../../../../m68k-elf/lib/m5206e\libstdc++.a(eh_term_handler.o)
 .bss           0x0219306c        0x0 c:/nburn/gcc-m68k/bin/../lib/gcc/m68k-elf/4.2.1/../../../../m68k-elf/lib/m5206e\libstdc++.a(eh_personality.o)
 .bss           0x0219306c        0x0 c:/nburn/gcc-m68k/bin/../lib/gcc/m68k-elf/4.2.1/../../../../m68k-elf/lib/m5206e\libstdc++.a(pure.o)
 .bss           0x0219306c        0x0 c:/nburn/gcc-m68k/bin/../lib/gcc/m68k-elf/4.2.1/../../../../m68k-elf/lib/m5206e\libstdc++.a(eh_alloc.o)
 .bss           0x0219306c        0x0 c:/nburn/gcc-m68k/bin/../lib/gcc/m68k-elf/4.2.1/../../../../m68k-elf/lib/m5206e\libstdc++.a(bad_cast.o)
 .bss           0x0219306c        0x0 c:/nburn/gcc-m68k/bin/../lib/gcc/m68k-elf/4.2.1/../../../../m68k-elf/lib/m5206e\libstdc++.a(eh_unex_handler.o)
 .bss           0x0219306c        0x0 c:/nburn/gcc-m68k/bin/../lib/gcc/m68k-elf/4.2.1/../../../../m68k-elf/lib/m5206e\libstdc++.a(si_class_type_info.o)
 .bss           0x0219306c        0x0 c:/nburn/gcc-m68k/bin/../lib/gcc/m68k-elf/4.2.1/../../../../m68k-elf/lib/m5206e\libstdc++.a(vterminate.o)
 .bss           0x0219306c        0x0 c:/nburn/gcc-m68k/bin/../lib/gcc/m68k-elf/4.2.1/../../../../m68k-elf/lib/m5206e\libstdc++.a(eh_call.o)
 .bss           0x0219306c        0x0 c:/nburn/gcc-m68k/bin/../lib/gcc/m68k-elf/4.2.1/../../../../m68k-elf/lib/m5206e\libstdc++.a(cp-demangle.o)
 .bss           0x0219306c        0x0 c:/nburn/gcc-m68k/bin/../lib/gcc/m68k-elf/4.2.1/../../../../m68k-elf/lib/m5206e\libstdc++.a(tinfo.o)
 .bss           0x0219306c        0x0 c:/nburn/gcc-m68k/bin/../lib/gcc/m68k-elf/4.2.1/../../../../m68k-elf/lib/m5206e\libstdc++.a(eh_type.o)
 .bss           0x0219306c        0x0 c:/nburn/gcc-m68k/bin/../lib/gcc/m68k-elf/4.2.1/../../../../m68k-elf/lib/m5206e\libm.a(lib_a-s_round.o)
 .bss           0x0219306c        0x0 c:/nburn/gcc-m68k/bin/../lib/gcc/m68k-elf/4.2.1/../../../../m68k-elf/lib/m5206e\libm.a(lib_a-wf_asin.o)
 .bss           0x0219306c        0x0 c:/nburn/gcc-m68k/bin/../lib/gcc/m68k-elf/4.2.1/../../../../m68k-elf/lib/m5206e\libm.a(lib_a-wf_pow.o)
 .bss           0x0219306c        0x0 c:/nburn/gcc-m68k/bin/../lib/gcc/m68k-elf/4.2.1/../../../../m68k-elf/lib/m5206e\libm.a(lib_a-ef_asin.o)
 .bss           0x0219306c        0x0 c:/nburn/gcc-m68k/bin/../lib/gcc/m68k-elf/4.2.1/../../../../m68k-elf/lib/m5206e\libm.a(lib_a-ef_pow.o)
 .bss           0x0219306c        0x0 c:/nburn/gcc-m68k/bin/../lib/gcc/m68k-elf/4.2.1/../../../../m68k-elf/lib/m5206e\libm.a(lib_a-ef_sqrt.o)
 .bss           0x0219306c        0x0 c:/nburn/gcc-m68k/bin/../lib/gcc/m68k-elf/4.2.1/../../../../m68k-elf/lib/m5206e\libm.a(lib_a-sf_fabs.o)
 .bss           0x0219306c        0x0 c:/nburn/gcc-m68k/bin/../lib/gcc/m68k-elf/4.2.1/../../../../m68k-elf/lib/m5206e\libm.a(lib_a-sf_finite.o)
 .bss           0x0219306c        0x0 c:/nburn/gcc-m68k/bin/../lib/gcc/m68k-elf/4.2.1/../../../../m68k-elf/lib/m5206e\libm.a(lib_a-sf_isnan.o)
 .bss           0x0219306c        0x0 c:/nburn/gcc-m68k/bin/../lib/gcc/m68k-elf/4.2.1/../../../../m68k-elf/lib/m5206e\libm.a(lib_a-sf_scalbn.o)
 .bss           0x0219306c        0x0 c:/nburn/gcc-m68k/bin/../lib/gcc/m68k-elf/4.2.1/../../../../m68k-elf/lib/m5206e\libm.a(lib_a-s_lib_ver.o)
 .bss           0x0219306c        0x0 c:/nburn/gcc-m68k/bin/../lib/gcc/m68k-elf/4.2.1/../../../../m68k-elf/lib/m5206e\libm.a(lib_a-s_matherr.o)
 .bss           0x0219306c        0x0 c:/nburn/gcc-m68k/bin/../lib/gcc/m68k-elf/4.2.1/../../../../m68k-elf/lib/m5206e\libm.a(lib_a-s_rint.o)
 .bss           0x0219306c        0x0 c:/nburn/gcc-m68k/bin/../lib/gcc/m68k-elf/4.2.1/../../../../m68k-elf/lib/m5206e\libm.a(lib_a-sf_copysign.o)
 .bss           0x0219306c        0x0 c:/nburn/gcc-m68k/bin/../lib/gcc/m68k-elf/4.2.1/m5206e\libgcc.a(_double.o)
 .bss           0x0219306c        0x0 c:/nburn/gcc-m68k/bin/../lib/gcc/m68k-elf/4.2.1/m5206e\libgcc.a(_float.o)
 .bss           0x0219306c        0x0 c:/nburn/gcc-m68k/bin/../lib/gcc/m68k-elf/4.2.1/m5206e\libgcc.a(_floatex.o)
 .bss           0x0219306c        0x0 c:/nburn/gcc-m68k/bin/../lib/gcc/m68k-elf/4.2.1/m5206e\libgcc.a(_nedf2.o)
 .bss           0x0219306c        0x0 c:/nburn/gcc-m68k/bin/../lib/gcc/m68k-elf/4.2.1/m5206e\libgcc.a(_gtdf2.o)
 .bss           0x0219306c        0x0 c:/nburn/gcc-m68k/bin/../lib/gcc/m68k-elf/4.2.1/m5206e\libgcc.a(_gedf2.o)
 .bss           0x0219306c        0x0 c:/nburn/gcc-m68k/bin/../lib/gcc/m68k-elf/4.2.1/m5206e\libgcc.a(_ltdf2.o)
 .bss           0x0219306c        0x0 c:/nburn/gcc-m68k/bin/../lib/gcc/m68k-elf/4.2.1/m5206e\libgcc.a(_ledf2.o)
 .bss           0x0219306c        0x0 c:/nburn/gcc-m68k/bin/../lib/gcc/m68k-elf/4.2.1/m5206e\libgcc.a(_eqsf2.o)
 .bss           0x0219306c        0x0 c:/nburn/gcc-m68k/bin/../lib/gcc/m68k-elf/4.2.1/m5206e\libgcc.a(_gtsf2.o)
 .bss           0x0219306c        0x0 c:/nburn/gcc-m68k/bin/../lib/gcc/m68k-elf/4.2.1/m5206e\libgcc.a(_gesf2.o)
 .bss           0x0219306c        0x0 c:/nburn/gcc-m68k/bin/../lib/gcc/m68k-elf/4.2.1/m5206e\libgcc.a(_ltsf2.o)
 .bss           0x0219306c        0x0 c:/nburn/gcc-m68k/bin/../lib/gcc/m68k-elf/4.2.1/m5206e\libgcc.a(_lesf2.o)
 .bss           0x0219306c        0x0 c:/nburn/gcc-m68k/bin/../lib/gcc/m68k-elf/4.2.1/m5206e\libgcc.a(_fixunssfsi.o)
 .bss           0x0219306c        0x0 c:/nburn/gcc-m68k/bin/../lib/gcc/m68k-elf/4.2.1/m5206e\libgcc.a(_fixunsdfsi.o)
 .bss           0x0219306c        0x0 c:/nburn/gcc-m68k/bin/../lib/gcc/m68k-elf/4.2.1/m5206e\libgcc.a(_fixdfdi.o)
 .bss           0x0219306c        0x0 c:/nburn/gcc-m68k/bin/../lib/gcc/m68k-elf/4.2.1/m5206e\libgcc.a(_fixunsdfdi.o)
 .bss           0x0219306c        0x0 c:/nburn/gcc-m68k/bin/../lib/gcc/m68k-elf/4.2.1/m5206e\libgcc.a(_udivdi3.o)
 .bss           0x0219306c        0x0 c:/nburn/gcc-m68k/bin/../lib/gcc/m68k-elf/4.2.1/m5206e\libgcc.a(_umoddi3.o)
 .bss           0x0219306c        0x0 c:/nburn/gcc-m68k/bin/../lib/gcc/m68k-elf/4.2.1/m5206e\libgcc.a(fpgnulib.o)
 .bss           0x0219306c       0x1a c:/nburn/gcc-m68k/bin/../lib/gcc/m68k-elf/4.2.1/m5206e\libgcc.a(unwind-dw2.o)
 *fill*         0x02193086        0x2 00
 .bss           0x02193088        0xc c:/nburn/gcc-m68k/bin/../lib/gcc/m68k-elf/4.2.1/m5206e\libgcc.a(unwind-dw2-fde.o)
 .bss           0x02193094        0x0 c:/nburn/gcc-m68k/bin/../lib/gcc/m68k-elf/4.2.1/m5206e\libgcc.a(_clz.o)
 .bss           0x02193094        0x0 c:/nburn/gcc-m68k/bin/../lib/gcc/m68k-elf/4.2.1/../../../../m68k-elf/lib/m5206e\libc.a(lib_a-abort.o)
 .bss           0x02193094        0x0 c:/nburn/gcc-m68k/bin/../lib/gcc/m68k-elf/4.2.1/../../../../m68k-elf/lib/m5206e\libc.a(lib_a-atof.o)
 .bss           0x02193094        0x0 c:/nburn/gcc-m68k/bin/../lib/gcc/m68k-elf/4.2.1/../../../../m68k-elf/lib/m5206e\libc.a(lib_a-atoi.o)
 .bss           0x02193094        0x0 c:/nburn/gcc-m68k/bin/../lib/gcc/m68k-elf/4.2.1/../../../../m68k-elf/lib/m5206e\libc.a(lib_a-bsearch.o)
 .bss           0x02193094        0x0 c:/nburn/gcc-m68k/bin/../lib/gcc/m68k-elf/4.2.1/../../../../m68k-elf/lib/m5206e\libc.a(lib_a-ctype_.o)
 .bss           0x02193094        0x0 c:/nburn/gcc-m68k/bin/../lib/gcc/m68k-elf/4.2.1/../../../../m68k-elf/lib/m5206e\libc.a(lib_a-cxa_atexit.o)
 .bss           0x02193094        0x0 c:/nburn/gcc-m68k/bin/../lib/gcc/m68k-elf/4.2.1/../../../../m68k-elf/lib/m5206e\libc.a(lib_a-div.o)
 .bss           0x02193094        0x0 c:/nburn/gcc-m68k/bin/../lib/gcc/m68k-elf/4.2.1/../../../../m68k-elf/lib/m5206e\libc.a(lib_a-errno.o)
 .bss           0x02193094        0x0 c:/nburn/gcc-m68k/bin/../lib/gcc/m68k-elf/4.2.1/../../../../m68k-elf/lib/m5206e\libc.a(lib_a-fdopen.o)
 .bss           0x02193094        0x0 c:/nburn/gcc-m68k/bin/../lib/gcc/m68k-elf/4.2.1/../../../../m68k-elf/lib/m5206e\libc.a(lib_a-fflush.o)
 .bss           0x02193094        0x0 c:/nburn/gcc-m68k/bin/../lib/gcc/m68k-elf/4.2.1/../../../../m68k-elf/lib/m5206e\libc.a(lib_a-findfp.o)
 .bss           0x02193094        0x0 c:/nburn/gcc-m68k/bin/../lib/gcc/m68k-elf/4.2.1/../../../../m68k-elf/lib/m5206e\libc.a(lib_a-fiprintf.o)
 .bss           0x02193094        0x0 c:/nburn/gcc-m68k/bin/../lib/gcc/m68k-elf/4.2.1/../../../../m68k-elf/lib/m5206e\libc.a(lib_a-flags.o)
 .bss           0x02193094        0x0 c:/nburn/gcc-m68k/bin/../lib/gcc/m68k-elf/4.2.1/../../../../m68k-elf/lib/m5206e\libc.a(lib_a-fprintf.o)
 .bss           0x02193094        0x0 c:/nburn/gcc-m68k/bin/../lib/gcc/m68k-elf/4.2.1/../../../../m68k-elf/lib/m5206e\libc.a(lib_a-fputc.o)
 .bss           0x02193094        0x0 c:/nburn/gcc-m68k/bin/../lib/gcc/m68k-elf/4.2.1/../../../../m68k-elf/lib/m5206e\libc.a(lib_a-fputs.o)
 .bss           0x02193094        0x0 c:/nburn/gcc-m68k/bin/../lib/gcc/m68k-elf/4.2.1/../../../../m68k-elf/lib/m5206e\libc.a(lib_a-fvwrite.o)
 .bss           0x02193094        0x0 c:/nburn/gcc-m68k/bin/../lib/gcc/m68k-elf/4.2.1/../../../../m68k-elf/lib/m5206e\libc.a(lib_a-fwalk.o)
 .bss           0x02193094        0x0 c:/nburn/gcc-m68k/bin/../lib/gcc/m68k-elf/4.2.1/../../../../m68k-elf/lib/m5206e\libc.a(lib_a-fwrite.o)
 .bss           0x02193094        0x0 c:/nburn/gcc-m68k/bin/../lib/gcc/m68k-elf/4.2.1/../../../../m68k-elf/lib/m5206e\libc.a(lib_a-gmtime.o)
 .bss           0x02193094        0x0 c:/nburn/gcc-m68k/bin/../lib/gcc/m68k-elf/4.2.1/../../../../m68k-elf/lib/m5206e\libc.a(lib_a-gmtime_r.o)
 .bss           0x02193094        0x0 c:/nburn/gcc-m68k/bin/../lib/gcc/m68k-elf/4.2.1/../../../../m68k-elf/lib/m5206e\libc.a(lib_a-impure.o)
 .bss           0x02193094        0x0 c:/nburn/gcc-m68k/bin/../lib/gcc/m68k-elf/4.2.1/../../../../m68k-elf/lib/m5206e\libc.a(lib_a-iprintf.o)
 .bss           0x02193094        0x0 c:/nburn/gcc-m68k/bin/../lib/gcc/m68k-elf/4.2.1/../../../../m68k-elf/lib/m5206e\libc.a(lib_a-isprint.o)
 .bss           0x02193094        0x0 c:/nburn/gcc-m68k/bin/../lib/gcc/m68k-elf/4.2.1/../../../../m68k-elf/lib/m5206e\libc.a(lib_a-isspace.o)
 .bss           0x02193094        0x0 c:/nburn/gcc-m68k/bin/../lib/gcc/m68k-elf/4.2.1/../../../../m68k-elf/lib/m5206e\libc.a(lib_a-malloc.o)
 .bss           0x02193094       0x34 c:/nburn/gcc-m68k/bin/../lib/gcc/m68k-elf/4.2.1/../../../../m68k-elf/lib/m5206e\libc.a(lib_a-mallocr.o)
                0x02193094                __malloc_top_pad
                0x02193098                __malloc_max_sbrked_mem
                0x021930a0                __malloc_current_mallinfo
                0x0219309c                __malloc_max_total_mem
 .bss           0x021930c8        0x0 c:/nburn/gcc-m68k/bin/../lib/gcc/m68k-elf/4.2.1/../../../../m68k-elf/lib/m5206e\libc.a(lib_a-memchr.o)
 .bss           0x021930c8        0x0 c:/nburn/gcc-m68k/bin/../lib/gcc/m68k-elf/4.2.1/../../../../m68k-elf/lib/m5206e\libc.a(lib_a-memcmp.o)
 .bss           0x021930c8        0x0 c:/nburn/gcc-m68k/bin/../lib/gcc/m68k-elf/4.2.1/../../../../m68k-elf/lib/m5206e\libc.a(lib_a-memmove.o)
 .bss           0x021930c8        0x0 c:/nburn/gcc-m68k/bin/../lib/gcc/m68k-elf/4.2.1/../../../../m68k-elf/lib/m5206e\libc.a(lib_a-mktm_r.o)
 .bss           0x021930c8        0x0 c:/nburn/gcc-m68k/bin/../lib/gcc/m68k-elf/4.2.1/../../../../m68k-elf/lib/m5206e\libc.a(lib_a-printf.o)
 .bss           0x021930c8        0x0 c:/nburn/gcc-m68k/bin/../lib/gcc/m68k-elf/4.2.1/../../../../m68k-elf/lib/m5206e\libc.a(lib_a-putc.o)
 .bss           0x021930c8        0x0 c:/nburn/gcc-m68k/bin/../lib/gcc/m68k-elf/4.2.1/../../../../m68k-elf/lib/m5206e\libc.a(lib_a-puts.o)
 .bss           0x021930c8        0x0 c:/nburn/gcc-m68k/bin/../lib/gcc/m68k-elf/4.2.1/../../../../m68k-elf/lib/m5206e\libc.a(lib_a-rand.o)
 .bss           0x021930c8        0x0 c:/nburn/gcc-m68k/bin/../lib/gcc/m68k-elf/4.2.1/../../../../m68k-elf/lib/m5206e\libc.a(lib_a-realloc.o)
 .bss           0x021930c8        0x0 c:/nburn/gcc-m68k/bin/../lib/gcc/m68k-elf/4.2.1/../../../../m68k-elf/lib/m5206e\libc.a(lib_a-reallocr.o)
 .bss           0x021930c8        0x0 c:/nburn/gcc-m68k/bin/../lib/gcc/m68k-elf/4.2.1/../../../../m68k-elf/lib/m5206e\libc.a(lib_a-rget.o)
 .bss           0x021930c8        0x0 c:/nburn/gcc-m68k/bin/../lib/gcc/m68k-elf/4.2.1/../../../../m68k-elf/lib/m5206e\libc.a(lib_a-setvbuf.o)
 .bss           0x021930c8        0x0 c:/nburn/gcc-m68k/bin/../lib/gcc/m68k-elf/4.2.1/../../../../m68k-elf/lib/m5206e\libc.a(lib_a-signal.o)
 .bss           0x021930c8        0x0 c:/nburn/gcc-m68k/bin/../lib/gcc/m68k-elf/4.2.1/../../../../m68k-elf/lib/m5206e\libc.a(lib_a-signalr.o)
 .bss           0x021930c8        0x0 c:/nburn/gcc-m68k/bin/../lib/gcc/m68k-elf/4.2.1/../../../../m68k-elf/lib/m5206e\libc.a(lib_a-siprintf.o)
 .bss           0x021930c8        0x0 c:/nburn/gcc-m68k/bin/../lib/gcc/m68k-elf/4.2.1/../../../../m68k-elf/lib/m5206e\libc.a(lib_a-sprintf.o)
 .bss           0x021930c8        0x0 c:/nburn/gcc-m68k/bin/../lib/gcc/m68k-elf/4.2.1/../../../../m68k-elf/lib/m5206e\libc.a(lib_a-sscanf.o)
 .bss           0x021930c8        0x0 c:/nburn/gcc-m68k/bin/../lib/gcc/m68k-elf/4.2.1/../../../../m68k-elf/lib/m5206e\libc.a(lib_a-stdio.o)
 .bss           0x021930c8        0x0 c:/nburn/gcc-m68k/bin/../lib/gcc/m68k-elf/4.2.1/../../../../m68k-elf/lib/m5206e\libc.a(lib_a-strcasecmp.o)
 .bss           0x021930c8        0x0 c:/nburn/gcc-m68k/bin/../lib/gcc/m68k-elf/4.2.1/../../../../m68k-elf/lib/m5206e\libc.a(lib_a-strcat.o)
 .bss           0x021930c8        0x0 c:/nburn/gcc-m68k/bin/../lib/gcc/m68k-elf/4.2.1/../../../../m68k-elf/lib/m5206e\libc.a(lib_a-strchr.o)
 .bss           0x021930c8        0x0 c:/nburn/gcc-m68k/bin/../lib/gcc/m68k-elf/4.2.1/../../../../m68k-elf/lib/m5206e\libc.a(lib_a-strcmp.o)
 .bss           0x021930c8        0x0 c:/nburn/gcc-m68k/bin/../lib/gcc/m68k-elf/4.2.1/../../../../m68k-elf/lib/m5206e\libc.a(lib_a-strcpy.o)
 .bss           0x021930c8        0x0 c:/nburn/gcc-m68k/bin/../lib/gcc/m68k-elf/4.2.1/../../../../m68k-elf/lib/m5206e\libc.a(lib_a-strlen.o)
 .bss           0x021930c8        0x0 c:/nburn/gcc-m68k/bin/../lib/gcc/m68k-elf/4.2.1/../../../../m68k-elf/lib/m5206e\libc.a(lib_a-strncmp.o)
 .bss           0x021930c8        0x0 c:/nburn/gcc-m68k/bin/../lib/gcc/m68k-elf/4.2.1/../../../../m68k-elf/lib/m5206e\libc.a(lib_a-strncpy.o)
 .bss           0x021930c8        0x0 c:/nburn/gcc-m68k/bin/../lib/gcc/m68k-elf/4.2.1/../../../../m68k-elf/lib/m5206e\libc.a(lib_a-strspn.o)
 .bss           0x021930c8        0x0 c:/nburn/gcc-m68k/bin/../lib/gcc/m68k-elf/4.2.1/../../../../m68k-elf/lib/m5206e\libc.a(lib_a-strstr.o)
 .bss           0x021930c8        0x0 c:/nburn/gcc-m68k/bin/../lib/gcc/m68k-elf/4.2.1/../../../../m68k-elf/lib/m5206e\libc.a(lib_a-strtod.o)
 .bss           0x021930c8        0x0 c:/nburn/gcc-m68k/bin/../lib/gcc/m68k-elf/4.2.1/../../../../m68k-elf/lib/m5206e\libc.a(lib_a-strtok_r.o)
 .bss           0x021930c8        0x0 c:/nburn/gcc-m68k/bin/../lib/gcc/m68k-elf/4.2.1/../../../../m68k-elf/lib/m5206e\libc.a(lib_a-strtol.o)
 .bss           0x021930c8        0x0 c:/nburn/gcc-m68k/bin/../lib/gcc/m68k-elf/4.2.1/../../../../m68k-elf/lib/m5206e\libc.a(lib_a-tolower.o)
 .bss           0x021930c8        0x0 c:/nburn/gcc-m68k/bin/../lib/gcc/m68k-elf/4.2.1/../../../../m68k-elf/lib/m5206e\libc.a(lib_a-toupper.o)
 .bss           0x021930c8        0x8 c:/nburn/gcc-m68k/bin/../lib/gcc/m68k-elf/4.2.1/../../../../m68k-elf/lib/m5206e\libc.a(lib_a-tzvars.o)
                0x021930c8                _daylight
                0x021930cc                _timezone
 .bss           0x021930d0        0x0 c:/nburn/gcc-m68k/bin/../lib/gcc/m68k-elf/4.2.1/../../../../m68k-elf/lib/m5206e\libc.a(lib_a-vfiprintf.o)
 .bss           0x021930d0        0x0 c:/nburn/gcc-m68k/bin/../lib/gcc/m68k-elf/4.2.1/../../../../m68k-elf/lib/m5206e\libc.a(lib_a-vfprintf.o)
 .bss           0x021930d0        0x0 c:/nburn/gcc-m68k/bin/../lib/gcc/m68k-elf/4.2.1/../../../../m68k-elf/lib/m5206e\libc.a(lib_a-vfscanf.o)
 .bss           0x021930d0        0x0 c:/nburn/gcc-m68k/bin/../lib/gcc/m68k-elf/4.2.1/../../../../m68k-elf/lib/m5206e\libc.a(lib_a-wbuf.o)
 .bss           0x021930d0        0x0 c:/nburn/gcc-m68k/bin/../lib/gcc/m68k-elf/4.2.1/../../../../m68k-elf/lib/m5206e\libc.a(lib_a-wcrtomb.o)
 .bss           0x021930d0        0x0 c:/nburn/gcc-m68k/bin/../lib/gcc/m68k-elf/4.2.1/../../../../m68k-elf/lib/m5206e\libc.a(lib_a-wcsrtombs.o)
 .bss           0x021930d0        0x0 c:/nburn/gcc-m68k/bin/../lib/gcc/m68k-elf/4.2.1/../../../../m68k-elf/lib/m5206e\libc.a(lib_a-wctomb_r.o)
 .bss           0x021930d0        0x0 c:/nburn/gcc-m68k/bin/../lib/gcc/m68k-elf/4.2.1/../../../../m68k-elf/lib/m5206e\libc.a(lib_a-writer.o)
 .bss           0x021930d0        0x0 c:/nburn/gcc-m68k/bin/../lib/gcc/m68k-elf/4.2.1/../../../../m68k-elf/lib/m5206e\libc.a(lib_a-wsetup.o)
 .bss           0x021930d0        0x0 c:/nburn/gcc-m68k/bin/../lib/gcc/m68k-elf/4.2.1/../../../../m68k-elf/lib/m5206e\libc.a(lib_a-__atexit.o)
 .bss           0x021930d0        0x0 c:/nburn/gcc-m68k/bin/../lib/gcc/m68k-elf/4.2.1/../../../../m68k-elf/lib/m5206e\libc.a(lib_a-closer.o)
 .bss           0x021930d0        0x0 c:/nburn/gcc-m68k/bin/../lib/gcc/m68k-elf/4.2.1/../../../../m68k-elf/lib/m5206e\libc.a(lib_a-dtoa.o)
 .bss           0x021930d0        0x0 c:/nburn/gcc-m68k/bin/../lib/gcc/m68k-elf/4.2.1/../../../../m68k-elf/lib/m5206e\libc.a(lib_a-fclose.o)
 .bss           0x021930d0        0x0 c:/nburn/gcc-m68k/bin/../lib/gcc/m68k-elf/4.2.1/../../../../m68k-elf/lib/m5206e\libc.a(lib_a-fread.o)
 .bss           0x021930d0        0x0 c:/nburn/gcc-m68k/bin/../lib/gcc/m68k-elf/4.2.1/../../../../m68k-elf/lib/m5206e\libc.a(lib_a-freer.o)
 .bss           0x021930d0        0x0 c:/nburn/gcc-m68k/bin/../lib/gcc/m68k-elf/4.2.1/../../../../m68k-elf/lib/m5206e\libc.a(lib_a-gdtoa-gethex.o)
 .bss           0x021930d0        0x0 c:/nburn/gcc-m68k/bin/../lib/gcc/m68k-elf/4.2.1/../../../../m68k-elf/lib/m5206e\libc.a(lib_a-gdtoa-hexnan.o)
 .bss           0x021930d0        0x0 c:/nburn/gcc-m68k/bin/../lib/gcc/m68k-elf/4.2.1/../../../../m68k-elf/lib/m5206e\libc.a(lib_a-gettzinfo.o)
 .bss           0x021930d0        0x0 c:/nburn/gcc-m68k/bin/../lib/gcc/m68k-elf/4.2.1/../../../../m68k-elf/lib/m5206e\libc.a(lib_a-iswspace.o)
 .bss           0x021930d0        0xc c:/nburn/gcc-m68k/bin/../lib/gcc/m68k-elf/4.2.1/../../../../m68k-elf/lib/m5206e\libc.a(lib_a-locale.o)
                0x021930d0                __nlocale_changed
                0x021930d4                __mlocale_changed
                0x021930d8                _PathLocale
 .bss           0x021930dc        0x0 c:/nburn/gcc-m68k/bin/../lib/gcc/m68k-elf/4.2.1/../../../../m68k-elf/lib/m5206e\libc.a(lib_a-lseekr.o)
 .bss           0x021930dc        0x0 c:/nburn/gcc-m68k/bin/../lib/gcc/m68k-elf/4.2.1/../../../../m68k-elf/lib/m5206e\libc.a(lib_a-makebuf.o)
 .bss           0x021930dc        0x0 c:/nburn/gcc-m68k/bin/../lib/gcc/m68k-elf/4.2.1/../../../../m68k-elf/lib/m5206e\libc.a(lib_a-mbrtowc.o)
 .bss           0x021930dc        0x0 c:/nburn/gcc-m68k/bin/../lib/gcc/m68k-elf/4.2.1/../../../../m68k-elf/lib/m5206e\libc.a(lib_a-mbtowc_r.o)
 .bss           0x021930dc        0x0 c:/nburn/gcc-m68k/bin/../lib/gcc/m68k-elf/4.2.1/../../../../m68k-elf/lib/m5206e\libc.a(lib_a-mprec.o)
 .bss           0x021930dc        0x0 c:/nburn/gcc-m68k/bin/../lib/gcc/m68k-elf/4.2.1/../../../../m68k-elf/lib/m5206e\libc.a(lib_a-readr.o)
 .bss           0x021930dc        0x0 c:/nburn/gcc-m68k/bin/../lib/gcc/m68k-elf/4.2.1/../../../../m68k-elf/lib/m5206e\libc.a(lib_a-refill.o)
 .bss           0x021930dc        0x0 c:/nburn/gcc-m68k/bin/../lib/gcc/m68k-elf/4.2.1/../../../../m68k-elf/lib/m5206e\libc.a(lib_a-sccl.o)
 .bss           0x021930dc        0x0 c:/nburn/gcc-m68k/bin/../lib/gcc/m68k-elf/4.2.1/../../../../m68k-elf/lib/m5206e\libc.a(lib_a-sf_nan.o)
 .bss           0x021930dc        0x0 c:/nburn/gcc-m68k/bin/../lib/gcc/m68k-elf/4.2.1/../../../../m68k-elf/lib/m5206e\libc.a(lib_a-s_isinfd.o)
 .bss           0x021930dc        0x0 c:/nburn/gcc-m68k/bin/../lib/gcc/m68k-elf/4.2.1/../../../../m68k-elf/lib/m5206e\libc.a(lib_a-s_isnand.o)
 .bss           0x021930dc        0x0 c:/nburn/gcc-m68k/bin/../lib/gcc/m68k-elf/4.2.1/../../../../m68k-elf/lib/m5206e\libc.a(lib_a-strtoll_r.o)
 .bss           0x021930dc        0x0 c:/nburn/gcc-m68k/bin/../lib/gcc/m68k-elf/4.2.1/../../../../m68k-elf/lib/m5206e\libc.a(lib_a-strtoull_r.o)
 .bss           0x021930dc        0x0 c:/nburn/gcc-m68k/bin/../lib/gcc/m68k-elf/4.2.1/../../../../m68k-elf/lib/m5206e\libc.a(lib_a-strtoul.o)
 .bss           0x021930dc        0x0 c:/nburn/gcc-m68k/bin/../lib/gcc/m68k-elf/4.2.1/../../../../m68k-elf/lib/m5206e\libc.a(lib_a-ungetc.o)
 .bss           0x021930dc        0x0 c:/nburn/gcc-m68k/bin/../lib/gcc/m68k-elf/4.2.1/../../../../m68k-elf/lib/m5206e\libc.a(lib_a-callocr.o)
 .bss           0x021930dc        0x0 c:/nburn/gcc-m68k/bin/../lib/gcc/m68k-elf/4.2.1/../../../../m68k-elf/lib/m5206e\libc.a(lib_a-fstatr.o)
 .bss           0x021930dc        0x0 c:/nburn/gcc-m68k/bin/../lib/gcc/m68k-elf/4.2.1/m5206e\libgcc.a(_eqdf2.o)
 .bss           0x021930dc        0x0 c:/nburn/gcc-m68k/bin/../lib/gcc/m68k-elf/4.2.1/m5206e\libgcc.a(_nesf2.o)
 .bss           0x021930dc        0x0 c:/nburn/gcc-m68k/bin/../lib/gcc/m68k-elf/4.2.1/m5206e\libgcc.a(_muldi3.o)
 .bss           0x021930dc        0x0 c:/nburn/gcc-m68k/bin/../lib/gcc/m68k-elf/4.2.1/m5206e/crtend.o
 *(.bss.*)
 .bss._ZNSs4_Rep20_S_empty_rep_storageE
                0x021930dc       0x10 c:/nburn/gcc-m68k/bin/../lib/gcc/m68k-elf/4.2.1/../../../../m68k-elf/lib/m5206e\libstdc++.a(string-inst.o)
                0x021930dc                std::string::_Rep::_S_empty_rep_storage
 .bss.__new_handler
                0x021930ec        0x4 c:/nburn/gcc-m68k/bin/../lib/gcc/m68k-elf/4.2.1/../../../../m68k-elf/lib/m5206e\libstdc++.a(new_handler.o)
                0x021930ec                __new_handler
 .bss.eh_globals
                0x021930f0        0x8 c:/nburn/gcc-m68k/bin/../lib/gcc/m68k-elf/4.2.1/../../../../m68k-elf/lib/m5206e\libstdc++.a(eh_globals.o)
 .bss.emergency_buffer
                0x021930f8      0x800 c:/nburn/gcc-m68k/bin/../lib/gcc/m68k-elf/4.2.1/../../../../m68k-elf/lib/m5206e\libstdc++.a(eh_alloc.o)
 .bss.emergency_used
                0x021938f8        0x4 c:/nburn/gcc-m68k/bin/../lib/gcc/m68k-elf/4.2.1/../../../../m68k-elf/lib/m5206e\libstdc++.a(eh_alloc.o)
 .bss._ZZN9__gnu_cxx27__verbose_terminate_handlerEvE11terminating
                0x021938fc        0x1 c:/nburn/gcc-m68k/bin/../lib/gcc/m68k-elf/4.2.1/../../../../m68k-elf/lib/m5206e\libstdc++.a(vterminate.o)
 *(COMMON)
 *fill*         0x021938fd        0x1 00
 COMMON         0x021938fe     0x4052 io.o
                0x021938fe                cpld_cache
                0x02193902                gio
 COMMON         0x02197950       0x18 C:\nburn/lib/MOD5270.a(bsp.o)
                0x02197950                BspTickMaxCount
                0x02197952                errno
                0x02197956                TERR_REGISTER
                0x02197958                heap_ptr
                0x0219795c                tpmr
                0x02197960                PlatformName
                0x02197964                CPU_CLOCK
 COMMON         0x02197968     0x2000 C:\nburn/lib/NetBurner.a(ucosmain.o)
                0x02197968                OSIdleTaskStk
 COMMON         0x02199968      0xa04 C:\nburn/lib/NetBurner.a(system.o)
                0x02199968                NotifyUpdatePtr
                0x0219996c                rnd_collect
                0x02199b6c                config_rec_buf
 COMMON         0x0219a36c      0x100 c:/nburn/gcc-m68k/bin/../lib/gcc/m68k-elf/4.2.1/../../../../m68k-elf/lib/m5206e\libc.a(lib_a-gdtoa-gethex.o)
                0x0219a36c                __hexdig
                0x0219a470                _end = ALIGN (0x8)
                0x0219a470                __end = _end

.stab
 *(.stab)

.stabstr
 *(.stabstr)

.debug
 *(.debug)

.line
 *(.line)

.debug_srcinfo
 *(.debug_srcinfo)

.debug_sfnames
 *(.debug_sfnames)

.debug_aranges  0x00000000      0x998
 *(.debug_aranges)
 .debug_aranges
                0x00000000       0x20 utils.o
 .debug_aranges
                0x00000020      0x170 services.o
 .debug_aranges
                0x00000190       0x68 observations.o
 .debug_aranges
                0x000001f8       0xb8 obs.o
 .debug_aranges
                0x000002b0      0x128 main.o
 .debug_aranges
                0x000003d8       0x20 io.o
 .debug_aranges
                0x000003f8       0x20 dhtml.o
 .debug_aranges
                0x00000418       0x28 data.o
 .debug_aranges
                0x00000440       0x78 control.o
 .debug_aranges
                0x000004b8       0x40 boot.o
 .debug_aranges
                0x000004f8       0x20 argus_io.o
 .debug_aranges
                0x00000518       0x20 argus_control.o
 .debug_aranges
                0x00000538       0x20 C:\nburn/lib/MOD5270.a(bsp.o)
 .debug_aranges
                0x00000558       0x20 C:\nburn/lib/MOD5270.a(ioboard.o)
 .debug_aranges
                0x00000578       0x20 C:\nburn/lib/MOD5270.a(pins.o)
 .debug_aranges
                0x00000598       0x20 C:\nburn/lib/MOD5270.a(i2cmulti.o)
 .debug_aranges
                0x000005b8       0x20 C:\nburn/lib/NetBurner.a(ucosmcfc.o)
 .debug_aranges
                0x000005d8       0x20 C:\nburn/lib/NetBurner.a(ucos.o)
 .debug_aranges
                0x000005f8       0x20 C:\nburn/lib/NetBurner.a(ucosmain.o)
 .debug_aranges
                0x00000618       0x20 C:\nburn/lib/NetBurner.a(fileio.o)
 .debug_aranges
                0x00000638       0x20 C:\nburn/lib/NetBurner.a(system.o)
 .debug_aranges
                0x00000658       0x20 C:\nburn/lib/NetBurner.a(main.o)
 .debug_aranges
                0x00000678       0x20 C:\nburn/lib/NetBurner.a(utils.o)
 .debug_aranges
                0x00000698       0x20 C:\nburn/lib/NetBurner.a(ip.o)
 .debug_aranges
                0x000006b8       0x20 C:\nburn/lib/NetBurner.a(buffers.o)
 .debug_aranges
                0x000006d8       0x20 C:\nburn/lib/NetBurner.a(arp.o)
 .debug_aranges
                0x000006f8       0x20 C:\nburn/lib/NetBurner.a(udp.o)
 .debug_aranges
                0x00000718       0x20 C:\nburn/lib/NetBurner.a(tcp.o)
 .debug_aranges
                0x00000738       0x20 C:\nburn/lib/NetBurner.a(http.o)
 .debug_aranges
                0x00000758       0x20 C:\nburn/lib/NetBurner.a(httpinternal.o)
 .debug_aranges
                0x00000778       0x20 C:\nburn/lib/NetBurner.a(htmldecomp.o)
 .debug_aranges
                0x00000798       0x20 C:\nburn/lib/NetBurner.a(htmlvarplaceholder.o)
 .debug_aranges
                0x000007b8       0x20 C:\nburn/lib/NetBurner.a(iosys.o)
 .debug_aranges
                0x000007d8       0x20 C:\nburn/lib/NetBurner.a(new_ops.o)
 .debug_aranges
                0x000007f8       0x20 C:\nburn/lib/NetBurner.a(autoip.o)
 .debug_aranges
                0x00000818       0x20 C:\nburn/lib/NetBurner.a(dhcpc.o)
 .debug_aranges
                0x00000838       0x20 C:\nburn/lib/NetBurner.a(netinterface.o)
 .debug_aranges
                0x00000858       0x20 C:\nburn/lib/NetBurner.a(taskmon.o)
 .debug_aranges
                0x00000878       0x20 C:\nburn/lib/NetBurner.a(smarttrap.o)
 .debug_aranges
                0x00000898       0x20 C:\nburn/lib/NetBurner.a(autoupdate.o)
 .debug_aranges
                0x000008b8       0x20 C:\nburn/lib/NetBurner.a(device.o)
 .debug_aranges
                0x000008d8       0x20 C:\nburn/lib/MOD5270.a(serial.o)
 .debug_aranges
                0x000008f8       0x20 C:\nburn/lib/MOD5270.a(ethernet.o)
 .debug_aranges
                0x00000918       0x20 C:\nburn/lib/MOD5270.a(etherprint.o)
 .debug_aranges
                0x00000938       0x20 C:\nburn/lib/MOD5270.a(emulticast.o)
 .debug_aranges
                0x00000958       0x20 C:\nburn/lib/NetBurner.a(extraio.o)
 .debug_aranges
                0x00000978       0x20 C:\nburn/lib/NetBurner.a(netrx.o)

.debug_pubnames
                0x00000000     0xaaf8
 *(.debug_pubnames)
 .debug_pubnames
                0x00000000      0x15b utils.o
 .debug_pubnames
                0x0000015b     0x1222 services.o
 .debug_pubnames
                0x0000137d      0x350 observations.o
 .debug_pubnames
                0x000016cd      0x576 obs.o
 .debug_pubnames
                0x00001c43     0x1b0a main.o
 .debug_pubnames
                0x0000374d      0x13a io.o
 .debug_pubnames
                0x00003887       0x28 dhtml.o
 .debug_pubnames
                0x000038af      0x31a data.o
 .debug_pubnames
                0x00003bc9     0x22a4 control.o
 .debug_pubnames
                0x00005e6d      0x132 boot.o
 .debug_pubnames
                0x00005f9f      0x6c1 argus_io.o
 .debug_pubnames
                0x00006660      0x509 argus_control.o
 .debug_pubnames
                0x00006b69      0x173 C:\nburn/lib/MOD5270.a(bsp.o)
 .debug_pubnames
                0x00006cdc       0xc2 C:\nburn/lib/MOD5270.a(ioboard.o)
 .debug_pubnames
                0x00006d9e       0x7e C:\nburn/lib/MOD5270.a(pins.o)
 .debug_pubnames
                0x00006e1c      0x264 C:\nburn/lib/MOD5270.a(i2cmulti.o)
 .debug_pubnames
                0x00007080       0x62 C:\nburn/lib/NetBurner.a(ucosmcfc.o)
 .debug_pubnames
                0x000070e2      0x369 C:\nburn/lib/NetBurner.a(ucos.o)
 .debug_pubnames
                0x0000744b       0xbc C:\nburn/lib/NetBurner.a(ucosmain.o)
 .debug_pubnames
                0x00007507       0xd7 C:\nburn/lib/NetBurner.a(fileio.o)
 .debug_pubnames
                0x000075de      0x10e C:\nburn/lib/NetBurner.a(system.o)
 .debug_pubnames
                0x000076ec       0x3d C:\nburn/lib/NetBurner.a(main.o)
 .debug_pubnames
                0x00007729      0x2e3 C:\nburn/lib/NetBurner.a(utils.o)
 .debug_pubnames
                0x00007a0c      0x2f7 C:\nburn/lib/NetBurner.a(ip.o)
 .debug_pubnames
                0x00007d03      0x3fd C:\nburn/lib/NetBurner.a(buffers.o)
 .debug_pubnames
                0x00008100      0x1fb C:\nburn/lib/NetBurner.a(arp.o)
 .debug_pubnames
                0x000082fb      0x482 C:\nburn/lib/NetBurner.a(udp.o)
 .debug_pubnames
                0x0000877d      0x9d4 C:\nburn/lib/NetBurner.a(tcp.o)
 .debug_pubnames
                0x00009151       0x68 C:\nburn/lib/NetBurner.a(http.o)
 .debug_pubnames
                0x000091b9      0x2c0 C:\nburn/lib/NetBurner.a(httpinternal.o)
 .debug_pubnames
                0x00009479       0xb7 C:\nburn/lib/NetBurner.a(htmldecomp.o)
 .debug_pubnames
                0x00009530       0x25 C:\nburn/lib/NetBurner.a(htmlvarplaceholder.o)
 .debug_pubnames
                0x00009555      0x1b2 C:\nburn/lib/NetBurner.a(iosys.o)
 .debug_pubnames
                0x00009707       0x23 C:\nburn/lib/NetBurner.a(new_ops.o)
 .debug_pubnames
                0x0000972a      0x26f C:\nburn/lib/NetBurner.a(autoip.o)
 .debug_pubnames
                0x00009999      0x58f C:\nburn/lib/NetBurner.a(dhcpc.o)
 .debug_pubnames
                0x00009f28      0x22e C:\nburn/lib/NetBurner.a(netinterface.o)
 .debug_pubnames
                0x0000a156       0x55 C:\nburn/lib/NetBurner.a(taskmon.o)
 .debug_pubnames
                0x0000a1ab       0xaa C:\nburn/lib/NetBurner.a(smarttrap.o)
 .debug_pubnames
                0x0000a255       0xd8 C:\nburn/lib/NetBurner.a(autoupdate.o)
 .debug_pubnames
                0x0000a32d       0x76 C:\nburn/lib/NetBurner.a(device.o)
 .debug_pubnames
                0x0000a3a3      0x224 C:\nburn/lib/MOD5270.a(serial.o)
 .debug_pubnames
                0x0000a5c7      0x3a1 C:\nburn/lib/MOD5270.a(ethernet.o)
 .debug_pubnames
                0x0000a968       0x6f C:\nburn/lib/MOD5270.a(etherprint.o)
 .debug_pubnames
                0x0000a9d7       0x55 C:\nburn/lib/MOD5270.a(emulticast.o)
 .debug_pubnames
                0x0000aa2c       0xae C:\nburn/lib/NetBurner.a(extraio.o)
 .debug_pubnames
                0x0000aada       0x1e C:\nburn/lib/NetBurner.a(netrx.o)

.debug_info     0x00000000    0xb1e69
 *(.debug_info)
 .debug_info    0x00000000     0x1157 utils.o
 .debug_info    0x00001157    0x1381c services.o
 .debug_info    0x00014973     0x66d1 observations.o
 .debug_info    0x0001b044    0x13d47 obs.o
 .debug_info    0x0002ed8b    0x1f5ee main.o
 .debug_info    0x0004e379     0x2a83 io.o
 .debug_info    0x00050dfc      0x10a dhtml.o
 .debug_info    0x00050f06     0x7d0c data.o
 .debug_info    0x00058c12    0x115e3 control.o
 .debug_info    0x0006a1f5     0xbf8b boot.o
 .debug_info    0x00076180     0x248d argus_io.o
 .debug_info    0x0007860d     0xc15a argus_control.o
 .debug_info    0x00084767     0x2c1f C:\nburn/lib/MOD5270.a(bsp.o)
 .debug_info    0x00087386     0x208e C:\nburn/lib/MOD5270.a(ioboard.o)
 .debug_info    0x00089414     0x21ab C:\nburn/lib/MOD5270.a(pins.o)
 .debug_info    0x0008b5bf     0x26a4 C:\nburn/lib/MOD5270.a(i2cmulti.o)
 .debug_info    0x0008dc63      0x351 C:\nburn/lib/NetBurner.a(ucosmcfc.o)
 .debug_info    0x0008dfb4     0x1116 C:\nburn/lib/NetBurner.a(ucos.o)
 .debug_info    0x0008f0ca      0xb92 C:\nburn/lib/NetBurner.a(ucosmain.o)
 .debug_info    0x0008fc5c      0xf32 C:\nburn/lib/NetBurner.a(fileio.o)
 .debug_info    0x00090b8e      0xe5c C:\nburn/lib/NetBurner.a(system.o)
 .debug_info    0x000919ea      0x118 C:\nburn/lib/NetBurner.a(main.o)
 .debug_info    0x00091b02     0x11dc C:\nburn/lib/NetBurner.a(utils.o)
 .debug_info    0x00092cde     0x1fb9 C:\nburn/lib/NetBurner.a(ip.o)
 .debug_info    0x00094c97     0x1069 C:\nburn/lib/NetBurner.a(buffers.o)
 .debug_info    0x00095d00     0x21d5 C:\nburn/lib/NetBurner.a(arp.o)
 .debug_info    0x00097ed5     0x22c6 C:\nburn/lib/NetBurner.a(udp.o)
 .debug_info    0x0009a19b     0x4e43 C:\nburn/lib/NetBurner.a(tcp.o)
 .debug_info    0x0009efde      0x4e8 C:\nburn/lib/NetBurner.a(http.o)
 .debug_info    0x0009f4c6      0xa3e C:\nburn/lib/NetBurner.a(httpinternal.o)
 .debug_info    0x0009ff04      0x693 C:\nburn/lib/NetBurner.a(htmldecomp.o)
 .debug_info    0x000a0597       0xa2 C:\nburn/lib/NetBurner.a(htmlvarplaceholder.o)
 .debug_info    0x000a0639      0x8da C:\nburn/lib/NetBurner.a(iosys.o)
 .debug_info    0x000a0f13      0x429 C:\nburn/lib/NetBurner.a(new_ops.o)
 .debug_info    0x000a133c     0x104b C:\nburn/lib/NetBurner.a(autoip.o)
 .debug_info    0x000a2387     0x397b C:\nburn/lib/NetBurner.a(dhcpc.o)
 .debug_info    0x000a5d02     0x127c C:\nburn/lib/NetBurner.a(netinterface.o)
 .debug_info    0x000a6f7e      0x9ac C:\nburn/lib/NetBurner.a(taskmon.o)
 .debug_info    0x000a792a      0x4d1 C:\nburn/lib/NetBurner.a(smarttrap.o)
 .debug_info    0x000a7dfb      0xb6b C:\nburn/lib/NetBurner.a(autoupdate.o)
 .debug_info    0x000a8966      0x143 C:\nburn/lib/NetBurner.a(device.o)
 .debug_info    0x000a8aa9     0x36af C:\nburn/lib/MOD5270.a(serial.o)
 .debug_info    0x000ac158     0x3440 C:\nburn/lib/MOD5270.a(ethernet.o)
 .debug_info    0x000af598      0x213 C:\nburn/lib/MOD5270.a(etherprint.o)
 .debug_info    0x000af7ab     0x1eee C:\nburn/lib/MOD5270.a(emulticast.o)
 .debug_info    0x000b1699      0x3e6 C:\nburn/lib/NetBurner.a(extraio.o)
 .debug_info    0x000b1a7f      0x3ea C:\nburn/lib/NetBurner.a(netrx.o)

.debug_abbrev   0x00000000     0xa95f
 *(.debug_abbrev)
 .debug_abbrev  0x00000000      0x2f6 utils.o
 .debug_abbrev  0x000002f6      0x9da services.o
 .debug_abbrev  0x00000cd0      0x77c observations.o
 .debug_abbrev  0x0000144c      0x8d9 obs.o
 .debug_abbrev  0x00001d25      0x9dc main.o
 .debug_abbrev  0x00002701      0x32e io.o
 .debug_abbrev  0x00002a2f       0xb3 dhtml.o
 .debug_abbrev  0x00002ae2      0x72b data.o
 .debug_abbrev  0x0000320d      0x8ff control.o
 .debug_abbrev  0x00003b0c      0x839 boot.o
 .debug_abbrev  0x00004345      0x372 argus_io.o
 .debug_abbrev  0x000046b7      0x73f argus_control.o
 .debug_abbrev  0x00004df6      0x383 C:\nburn/lib/MOD5270.a(bsp.o)
 .debug_abbrev  0x00005179      0x1d2 C:\nburn/lib/MOD5270.a(ioboard.o)
 .debug_abbrev  0x0000534b      0x2aa C:\nburn/lib/MOD5270.a(pins.o)
 .debug_abbrev  0x000055f5      0x38d C:\nburn/lib/MOD5270.a(i2cmulti.o)
 .debug_abbrev  0x00005982      0x133 C:\nburn/lib/NetBurner.a(ucosmcfc.o)
 .debug_abbrev  0x00005ab5      0x1f4 C:\nburn/lib/NetBurner.a(ucos.o)
 .debug_abbrev  0x00005ca9      0x1d0 C:\nburn/lib/NetBurner.a(ucosmain.o)
 .debug_abbrev  0x00005e79      0x2a4 C:\nburn/lib/NetBurner.a(fileio.o)
 .debug_abbrev  0x0000611d      0x28b C:\nburn/lib/NetBurner.a(system.o)
 .debug_abbrev  0x000063a8       0xcf C:\nburn/lib/NetBurner.a(main.o)
 .debug_abbrev  0x00006477      0x33e C:\nburn/lib/NetBurner.a(utils.o)
 .debug_abbrev  0x000067b5      0x491 C:\nburn/lib/NetBurner.a(ip.o)
 .debug_abbrev  0x00006c46      0x340 C:\nburn/lib/NetBurner.a(buffers.o)
 .debug_abbrev  0x00006f86      0x484 C:\nburn/lib/NetBurner.a(arp.o)
 .debug_abbrev  0x0000740a      0x44b C:\nburn/lib/NetBurner.a(udp.o)
 .debug_abbrev  0x00007855      0x610 C:\nburn/lib/NetBurner.a(tcp.o)
 .debug_abbrev  0x00007e65      0x1f1 C:\nburn/lib/NetBurner.a(http.o)
 .debug_abbrev  0x00008056      0x2a6 C:\nburn/lib/NetBurner.a(httpinternal.o)
 .debug_abbrev  0x000082fc      0x238 C:\nburn/lib/NetBurner.a(htmldecomp.o)
 .debug_abbrev  0x00008534       0x5e C:\nburn/lib/NetBurner.a(htmlvarplaceholder.o)
 .debug_abbrev  0x00008592      0x2cf C:\nburn/lib/NetBurner.a(iosys.o)
 .debug_abbrev  0x00008861      0x132 C:\nburn/lib/NetBurner.a(new_ops.o)
 .debug_abbrev  0x00008993      0x335 C:\nburn/lib/NetBurner.a(autoip.o)
 .debug_abbrev  0x00008cc8      0x4a6 C:\nburn/lib/NetBurner.a(dhcpc.o)
 .debug_abbrev  0x0000916e      0x304 C:\nburn/lib/NetBurner.a(netinterface.o)
 .debug_abbrev  0x00009472      0x251 C:\nburn/lib/NetBurner.a(taskmon.o)
 .debug_abbrev  0x000096c3      0x1b5 C:\nburn/lib/NetBurner.a(smarttrap.o)
 .debug_abbrev  0x00009878      0x2bf C:\nburn/lib/NetBurner.a(autoupdate.o)
 .debug_abbrev  0x00009b37       0xbc C:\nburn/lib/NetBurner.a(device.o)
 .debug_abbrev  0x00009bf3      0x431 C:\nburn/lib/MOD5270.a(serial.o)
 .debug_abbrev  0x0000a024      0x3fa C:\nburn/lib/MOD5270.a(ethernet.o)
 .debug_abbrev  0x0000a41e       0xd2 C:\nburn/lib/MOD5270.a(etherprint.o)
 .debug_abbrev  0x0000a4f0      0x1a6 C:\nburn/lib/MOD5270.a(emulticast.o)
 .debug_abbrev  0x0000a696      0x197 C:\nburn/lib/NetBurner.a(extraio.o)
 .debug_abbrev  0x0000a82d      0x132 C:\nburn/lib/NetBurner.a(netrx.o)

.debug_line     0x00000000    0x17200
 *(.debug_line)
 .debug_line    0x00000000      0x284 utils.o
 .debug_line    0x00000284     0x14f7 services.o
 .debug_line    0x0000177b      0x8aa observations.o
 .debug_line    0x00002025     0x2169 obs.o
 .debug_line    0x0000418e     0x44c5 main.o
 .debug_line    0x00008653      0x42d io.o
 .debug_line    0x00008a80       0x48 dhtml.o
 .debug_line    0x00008ac8      0x6e4 data.o
 .debug_line    0x000091ac     0x1dd5 control.o
 .debug_line    0x0000af81      0x800 boot.o
 .debug_line    0x0000b781     0x115c argus_io.o
 .debug_line    0x0000c8dd      0xfac argus_control.o
 .debug_line    0x0000d889      0x37d C:\nburn/lib/MOD5270.a(bsp.o)
 .debug_line    0x0000dc06      0x151 C:\nburn/lib/MOD5270.a(ioboard.o)
 .debug_line    0x0000dd57      0x9b6 C:\nburn/lib/MOD5270.a(pins.o)
 .debug_line    0x0000e70d      0x4cd C:\nburn/lib/MOD5270.a(i2cmulti.o)
 .debug_line    0x0000ebda      0x182 C:\nburn/lib/NetBurner.a(ucosmcfc.o)
 .debug_line    0x0000ed5c      0x40f C:\nburn/lib/NetBurner.a(ucos.o)
 .debug_line    0x0000f16b      0x26c C:\nburn/lib/NetBurner.a(ucosmain.o)
 .debug_line    0x0000f3d7      0x395 C:\nburn/lib/NetBurner.a(fileio.o)
 .debug_line    0x0000f76c      0x339 C:\nburn/lib/NetBurner.a(system.o)
 .debug_line    0x0000faa5       0xba C:\nburn/lib/NetBurner.a(main.o)
 .debug_line    0x0000fb5f      0x54c C:\nburn/lib/NetBurner.a(utils.o)
 .debug_line    0x000100ab      0x72b C:\nburn/lib/NetBurner.a(ip.o)
 .debug_line    0x000107d6      0x48b C:\nburn/lib/NetBurner.a(buffers.o)
 .debug_line    0x00010c61      0xa07 C:\nburn/lib/NetBurner.a(arp.o)
 .debug_line    0x00011668      0x630 C:\nburn/lib/NetBurner.a(udp.o)
 .debug_line    0x00011c98     0x1aad C:\nburn/lib/NetBurner.a(tcp.o)
 .debug_line    0x00013745      0x1f4 C:\nburn/lib/NetBurner.a(http.o)
 .debug_line    0x00013939      0x31f C:\nburn/lib/NetBurner.a(httpinternal.o)
 .debug_line    0x00013c58      0x225 C:\nburn/lib/NetBurner.a(htmldecomp.o)
 .debug_line    0x00013e7d       0xbc C:\nburn/lib/NetBurner.a(htmlvarplaceholder.o)
 .debug_line    0x00013f39      0x273 C:\nburn/lib/NetBurner.a(iosys.o)
 .debug_line    0x000141ac      0x25c C:\nburn/lib/NetBurner.a(new_ops.o)
 .debug_line    0x00014408      0x2b3 C:\nburn/lib/NetBurner.a(autoip.o)
 .debug_line    0x000146bb      0xcf9 C:\nburn/lib/NetBurner.a(dhcpc.o)
 .debug_line    0x000153b4      0x1fc C:\nburn/lib/NetBurner.a(netinterface.o)
 .debug_line    0x000155b0      0x1f6 C:\nburn/lib/NetBurner.a(taskmon.o)
 .debug_line    0x000157a6      0x374 C:\nburn/lib/NetBurner.a(smarttrap.o)
 .debug_line    0x00015b1a      0x219 C:\nburn/lib/NetBurner.a(autoupdate.o)
 .debug_line    0x00015d33       0xc7 C:\nburn/lib/NetBurner.a(device.o)
 .debug_line    0x00015dfa      0x951 C:\nburn/lib/MOD5270.a(serial.o)
 .debug_line    0x0001674b      0x555 C:\nburn/lib/MOD5270.a(ethernet.o)
 .debug_line    0x00016ca0      0x18b C:\nburn/lib/MOD5270.a(etherprint.o)
 .debug_line    0x00016e2b      0x113 C:\nburn/lib/MOD5270.a(emulticast.o)
 .debug_line    0x00016f3e      0x133 C:\nburn/lib/NetBurner.a(extraio.o)
 .debug_line    0x00017071      0x18f C:\nburn/lib/NetBurner.a(netrx.o)

.debug_frame    0x00000000    0x108c8
 *(.debug_frame)
 .debug_frame   0x00000000      0x2c4 utils.o
 .debug_frame   0x000002c4      0xa68 services.o
 .debug_frame   0x00000d2c      0x268 observations.o
 .debug_frame   0x00000f94      0x7b4 obs.o
 .debug_frame   0x00001748      0xb00 main.o
 .debug_frame   0x00002248      0x2e4 io.o
 .debug_frame   0x0000252c       0x3c dhtml.o
 .debug_frame   0x00002568       0xec data.o
 .debug_frame   0x00002654      0xa40 control.o
 .debug_frame   0x00003094      0x170 boot.o
 .debug_frame   0x00003204      0xccc argus_io.o
 .debug_frame   0x00003ed0      0xda0 argus_control.o
 .debug_frame   0x00004c70      0x1c8 C:\nburn/lib/MOD5270.a(bsp.o)
 .debug_frame   0x00004e38      0x144 C:\nburn/lib/MOD5270.a(ioboard.o)
 .debug_frame   0x00004f7c       0xb4 C:\nburn/lib/MOD5270.a(pins.o)
 .debug_frame   0x00005030      0x238 C:\nburn/lib/MOD5270.a(i2cmulti.o)
 .debug_frame   0x00005268       0x9c C:\nburn/lib/NetBurner.a(ucosmcfc.o)
 .debug_frame   0x00005304      0x454 C:\nburn/lib/NetBurner.a(ucos.o)
 .debug_frame   0x00005758       0xd0 C:\nburn/lib/NetBurner.a(ucosmain.o)
 .debug_frame   0x00005828      0x1e4 C:\nburn/lib/NetBurner.a(fileio.o)
 .debug_frame   0x00005a0c      0x194 C:\nburn/lib/NetBurner.a(system.o)
 .debug_frame   0x00005ba0       0x4c C:\nburn/lib/NetBurner.a(main.o)
 .debug_frame   0x00005bec      0x268 C:\nburn/lib/NetBurner.a(utils.o)
 .debug_frame   0x00005e54      0x4a0 C:\nburn/lib/NetBurner.a(ip.o)
 .debug_frame   0x000062f4      0x434 C:\nburn/lib/NetBurner.a(buffers.o)
 .debug_frame   0x00006728      0x518 C:\nburn/lib/NetBurner.a(arp.o)
 .debug_frame   0x00006c40      0x540 C:\nburn/lib/NetBurner.a(udp.o)
 .debug_frame   0x00007180      0xf94 C:\nburn/lib/NetBurner.a(tcp.o)
 .debug_frame   0x00008114       0xd0 C:\nburn/lib/NetBurner.a(http.o)
 .debug_frame   0x000081e4      0x364 C:\nburn/lib/NetBurner.a(httpinternal.o)
 .debug_frame   0x00008548      0x184 C:\nburn/lib/NetBurner.a(htmldecomp.o)
 .debug_frame   0x000086cc       0x2c C:\nburn/lib/NetBurner.a(htmlvarplaceholder.o)
 .debug_frame   0x000086f8      0x2f8 C:\nburn/lib/NetBurner.a(iosys.o)
 .debug_frame   0x000089f0       0x30 C:\nburn/lib/NetBurner.a(new_ops.o)
 .debug_frame   0x00008a20      0x2a0 C:\nburn/lib/NetBurner.a(autoip.o)
 .debug_frame   0x00008cc0      0x670 C:\nburn/lib/NetBurner.a(dhcpc.o)
 .debug_frame   0x00009330      0x238 C:\nburn/lib/NetBurner.a(netinterface.o)
 .debug_frame   0x00009568       0x8c C:\nburn/lib/NetBurner.a(taskmon.o)
 .debug_frame   0x000095f4      0x324 C:\nburn/lib/NetBurner.a(smarttrap.o)
 .debug_frame   0x00009918      0x128 C:\nburn/lib/NetBurner.a(autoupdate.o)
 .debug_frame   0x00009a40       0x60 C:\nburn/lib/NetBurner.a(device.o)
 .debug_frame   0x00009aa0      0x43c C:\nburn/lib/MOD5270.a(serial.o)
 .debug_frame   0x00009edc      0x33c C:\nburn/lib/MOD5270.a(ethernet.o)
 .debug_frame   0x0000a218       0xc4 C:\nburn/lib/MOD5270.a(etherprint.o)
 .debug_frame   0x0000a2dc       0x68 C:\nburn/lib/MOD5270.a(emulticast.o)
 .debug_frame   0x0000a344      0x108 C:\nburn/lib/NetBurner.a(extraio.o)
 .debug_frame   0x0000a44c       0x44 C:\nburn/lib/NetBurner.a(netrx.o)
 .debug_frame   0x0000a490      0x410 c:/nburn/gcc-m68k/bin/../lib/gcc/m68k-elf/4.2.1/../../../../m68k-elf/lib/m5206e\libstdc++.a(functexcept.o)
 .debug_frame   0x0000a8a0       0xe0 c:/nburn/gcc-m68k/bin/../lib/gcc/m68k-elf/4.2.1/../../../../m68k-elf/lib/m5206e\libstdc++.a(ios_failure.o)
 .debug_frame   0x0000a980      0x4ac c:/nburn/gcc-m68k/bin/../lib/gcc/m68k-elf/4.2.1/../../../../m68k-elf/lib/m5206e\libstdc++.a(stdexcept.o)
 .debug_frame   0x0000ae2c      0x130 c:/nburn/gcc-m68k/bin/../lib/gcc/m68k-elf/4.2.1/../../../../m68k-elf/lib/m5206e\libstdc++.a(tree.o)
 .debug_frame   0x0000af5c     0x1420 c:/nburn/gcc-m68k/bin/../lib/gcc/m68k-elf/4.2.1/../../../../m68k-elf/lib/m5206e\libstdc++.a(string-inst.o)
 .debug_frame   0x0000c37c       0x74 c:/nburn/gcc-m68k/bin/../lib/gcc/m68k-elf/4.2.1/../../../../m68k-elf/lib/m5206e\libstdc++.a(eh_throw.o)
 .debug_frame   0x0000c3f0       0x98 c:/nburn/gcc-m68k/bin/../lib/gcc/m68k-elf/4.2.1/../../../../m68k-elf/lib/m5206e\libstdc++.a(new_handler.o)
 .debug_frame   0x0000c488       0x44 c:/nburn/gcc-m68k/bin/../lib/gcc/m68k-elf/4.2.1/../../../../m68k-elf/lib/m5206e\libstdc++.a(eh_globals.o)
 .debug_frame   0x0000c4cc       0xe4 c:/nburn/gcc-m68k/bin/../lib/gcc/m68k-elf/4.2.1/../../../../m68k-elf/lib/m5206e\libstdc++.a(eh_exception.o)
 .debug_frame   0x0000c5b0       0xb4 c:/nburn/gcc-m68k/bin/../lib/gcc/m68k-elf/4.2.1/../../../../m68k-elf/lib/m5206e\libstdc++.a(guard.o)
 .debug_frame   0x0000c664       0x8c c:/nburn/gcc-m68k/bin/../lib/gcc/m68k-elf/4.2.1/../../../../m68k-elf/lib/m5206e\libstdc++.a(eh_catch.o)
 .debug_frame   0x0000c6f0       0xbc c:/nburn/gcc-m68k/bin/../lib/gcc/m68k-elf/4.2.1/../../../../m68k-elf/lib/m5206e\libstdc++.a(eh_terminate.o)
 .debug_frame   0x0000c7ac       0x80 c:/nburn/gcc-m68k/bin/../lib/gcc/m68k-elf/4.2.1/../../../../m68k-elf/lib/m5206e\libstdc++.a(bad_typeid.o)
 .debug_frame   0x0000c82c       0x30 c:/nburn/gcc-m68k/bin/../lib/gcc/m68k-elf/4.2.1/../../../../m68k-elf/lib/m5206e\libstdc++.a(del_op.o)
 .debug_frame   0x0000c85c       0xf0 c:/nburn/gcc-m68k/bin/../lib/gcc/m68k-elf/4.2.1/../../../../m68k-elf/lib/m5206e\libstdc++.a(class_type_info.o)
 .debug_frame   0x0000c94c      0x1f4 c:/nburn/gcc-m68k/bin/../lib/gcc/m68k-elf/4.2.1/../../../../m68k-elf/lib/m5206e\libstdc++.a(eh_personality.o)
 .debug_frame   0x0000cb40       0x30 c:/nburn/gcc-m68k/bin/../lib/gcc/m68k-elf/4.2.1/../../../../m68k-elf/lib/m5206e\libstdc++.a(pure.o)
 .debug_frame   0x0000cb70       0x94 c:/nburn/gcc-m68k/bin/../lib/gcc/m68k-elf/4.2.1/../../../../m68k-elf/lib/m5206e\libstdc++.a(eh_alloc.o)
 .debug_frame   0x0000cc04       0x80 c:/nburn/gcc-m68k/bin/../lib/gcc/m68k-elf/4.2.1/../../../../m68k-elf/lib/m5206e\libstdc++.a(bad_cast.o)
 .debug_frame   0x0000cc84       0xcc c:/nburn/gcc-m68k/bin/../lib/gcc/m68k-elf/4.2.1/../../../../m68k-elf/lib/m5206e\libstdc++.a(si_class_type_info.o)
 .debug_frame   0x0000cd50       0x70 c:/nburn/gcc-m68k/bin/../lib/gcc/m68k-elf/4.2.1/../../../../m68k-elf/lib/m5206e\libstdc++.a(vterminate.o)
 .debug_frame   0x0000cdc0       0x3c c:/nburn/gcc-m68k/bin/../lib/gcc/m68k-elf/4.2.1/../../../../m68k-elf/lib/m5206e\libstdc++.a(eh_call.o)
 .debug_frame   0x0000cdfc      0x804 c:/nburn/gcc-m68k/bin/../lib/gcc/m68k-elf/4.2.1/../../../../m68k-elf/lib/m5206e\libstdc++.a(cp-demangle.o)
 .debug_frame   0x0000d600       0xc0 c:/nburn/gcc-m68k/bin/../lib/gcc/m68k-elf/4.2.1/../../../../m68k-elf/lib/m5206e\libstdc++.a(tinfo.o)
 .debug_frame   0x0000d6c0       0x2c c:/nburn/gcc-m68k/bin/../lib/gcc/m68k-elf/4.2.1/../../../../m68k-elf/lib/m5206e\libstdc++.a(eh_type.o)
 .debug_frame   0x0000d6ec       0x40 c:/nburn/gcc-m68k/bin/../lib/gcc/m68k-elf/4.2.1/../../../../m68k-elf/lib/m5206e\libm.a(lib_a-s_round.o)
 .debug_frame   0x0000d72c       0x48 c:/nburn/gcc-m68k/bin/../lib/gcc/m68k-elf/4.2.1/../../../../m68k-elf/lib/m5206e\libm.a(lib_a-wf_asin.o)
 .debug_frame   0x0000d774       0xc4 c:/nburn/gcc-m68k/bin/../lib/gcc/m68k-elf/4.2.1/../../../../m68k-elf/lib/m5206e\libm.a(lib_a-wf_pow.o)
 .debug_frame   0x0000d838       0x54 c:/nburn/gcc-m68k/bin/../lib/gcc/m68k-elf/4.2.1/../../../../m68k-elf/lib/m5206e\libm.a(lib_a-ef_asin.o)
 .debug_frame   0x0000d88c       0x64 c:/nburn/gcc-m68k/bin/../lib/gcc/m68k-elf/4.2.1/../../../../m68k-elf/lib/m5206e\libm.a(lib_a-ef_pow.o)
 .debug_frame   0x0000d8f0       0x34 c:/nburn/gcc-m68k/bin/../lib/gcc/m68k-elf/4.2.1/../../../../m68k-elf/lib/m5206e\libm.a(lib_a-ef_sqrt.o)
 .debug_frame   0x0000d924       0x2c c:/nburn/gcc-m68k/bin/../lib/gcc/m68k-elf/4.2.1/../../../../m68k-elf/lib/m5206e\libm.a(lib_a-sf_fabs.o)
 .debug_frame   0x0000d950       0x2c c:/nburn/gcc-m68k/bin/../lib/gcc/m68k-elf/4.2.1/../../../../m68k-elf/lib/m5206e\libm.a(lib_a-sf_finite.o)
 .debug_frame   0x0000d97c       0x2c c:/nburn/gcc-m68k/bin/../lib/gcc/m68k-elf/4.2.1/../../../../m68k-elf/lib/m5206e\libm.a(lib_a-sf_isnan.o)
 .debug_frame   0x0000d9a8       0x34 c:/nburn/gcc-m68k/bin/../lib/gcc/m68k-elf/4.2.1/../../../../m68k-elf/lib/m5206e\libm.a(lib_a-sf_scalbn.o)
 .debug_frame   0x0000d9dc       0x2c c:/nburn/gcc-m68k/bin/../lib/gcc/m68k-elf/4.2.1/../../../../m68k-elf/lib/m5206e\libm.a(lib_a-s_matherr.o)
 .debug_frame   0x0000da08       0x3c c:/nburn/gcc-m68k/bin/../lib/gcc/m68k-elf/4.2.1/../../../../m68k-elf/lib/m5206e\libm.a(lib_a-s_rint.o)
 .debug_frame   0x0000da44       0x2c c:/nburn/gcc-m68k/bin/../lib/gcc/m68k-elf/4.2.1/../../../../m68k-elf/lib/m5206e\libm.a(lib_a-sf_copysign.o)
 .debug_frame   0x0000da70       0x34 c:/nburn/gcc-m68k/bin/../lib/gcc/m68k-elf/4.2.1/m5206e\libgcc.a(_fixunssfsi.o)
 .debug_frame   0x0000daa4       0x38 c:/nburn/gcc-m68k/bin/../lib/gcc/m68k-elf/4.2.1/m5206e\libgcc.a(_fixunsdfsi.o)
 .debug_frame   0x0000dadc       0x38 c:/nburn/gcc-m68k/bin/../lib/gcc/m68k-elf/4.2.1/m5206e\libgcc.a(_fixdfdi.o)
 .debug_frame   0x0000db14       0x48 c:/nburn/gcc-m68k/bin/../lib/gcc/m68k-elf/4.2.1/m5206e\libgcc.a(_fixunsdfdi.o)
 .debug_frame   0x0000db5c       0x40 c:/nburn/gcc-m68k/bin/../lib/gcc/m68k-elf/4.2.1/m5206e\libgcc.a(_udivdi3.o)
 .debug_frame   0x0000db9c       0x40 c:/nburn/gcc-m68k/bin/../lib/gcc/m68k-elf/4.2.1/m5206e\libgcc.a(_umoddi3.o)
 .debug_frame   0x0000dbdc      0x144 c:/nburn/gcc-m68k/bin/../lib/gcc/m68k-elf/4.2.1/m5206e\libgcc.a(fpgnulib.o)
 .debug_frame   0x0000dd20      0x56c c:/nburn/gcc-m68k/bin/../lib/gcc/m68k-elf/4.2.1/m5206e\libgcc.a(unwind-dw2.o)
 .debug_frame   0x0000e28c      0x3f0 c:/nburn/gcc-m68k/bin/../lib/gcc/m68k-elf/4.2.1/m5206e\libgcc.a(unwind-dw2-fde.o)
 .debug_frame   0x0000e67c       0x30 c:/nburn/gcc-m68k/bin/../lib/gcc/m68k-elf/4.2.1/../../../../m68k-elf/lib/m5206e\libc.a(lib_a-abort.o)
 .debug_frame   0x0000e6ac       0x30 c:/nburn/gcc-m68k/bin/../lib/gcc/m68k-elf/4.2.1/../../../../m68k-elf/lib/m5206e\libc.a(lib_a-atof.o)
 .debug_frame   0x0000e6dc       0x4c c:/nburn/gcc-m68k/bin/../lib/gcc/m68k-elf/4.2.1/../../../../m68k-elf/lib/m5206e\libc.a(lib_a-atoi.o)
 .debug_frame   0x0000e728       0x38 c:/nburn/gcc-m68k/bin/../lib/gcc/m68k-elf/4.2.1/../../../../m68k-elf/lib/m5206e\libc.a(lib_a-bsearch.o)
 .debug_frame   0x0000e760       0x30 c:/nburn/gcc-m68k/bin/../lib/gcc/m68k-elf/4.2.1/../../../../m68k-elf/lib/m5206e\libc.a(lib_a-cxa_atexit.o)
 .debug_frame   0x0000e790       0x30 c:/nburn/gcc-m68k/bin/../lib/gcc/m68k-elf/4.2.1/../../../../m68k-elf/lib/m5206e\libc.a(lib_a-div.o)
 .debug_frame   0x0000e7c0       0x2c c:/nburn/gcc-m68k/bin/../lib/gcc/m68k-elf/4.2.1/../../../../m68k-elf/lib/m5206e\libc.a(lib_a-errno.o)
 .debug_frame   0x0000e7ec       0x50 c:/nburn/gcc-m68k/bin/../lib/gcc/m68k-elf/4.2.1/../../../../m68k-elf/lib/m5206e\libc.a(lib_a-fdopen.o)
 .debug_frame   0x0000e83c       0x44 c:/nburn/gcc-m68k/bin/../lib/gcc/m68k-elf/4.2.1/../../../../m68k-elf/lib/m5206e\libc.a(lib_a-fflush.o)
 .debug_frame   0x0000e880       0xcc c:/nburn/gcc-m68k/bin/../lib/gcc/m68k-elf/4.2.1/../../../../m68k-elf/lib/m5206e\libc.a(lib_a-findfp.o)
 .debug_frame   0x0000e94c       0x30 c:/nburn/gcc-m68k/bin/../lib/gcc/m68k-elf/4.2.1/../../../../m68k-elf/lib/m5206e\libc.a(lib_a-fiprintf.o)
 .debug_frame   0x0000e97c       0x30 c:/nburn/gcc-m68k/bin/../lib/gcc/m68k-elf/4.2.1/../../../../m68k-elf/lib/m5206e\libc.a(lib_a-flags.o)
 .debug_frame   0x0000e9ac       0x30 c:/nburn/gcc-m68k/bin/../lib/gcc/m68k-elf/4.2.1/../../../../m68k-elf/lib/m5206e\libc.a(lib_a-fprintf.o)
 .debug_frame   0x0000e9dc       0x5c c:/nburn/gcc-m68k/bin/../lib/gcc/m68k-elf/4.2.1/../../../../m68k-elf/lib/m5206e\libc.a(lib_a-fputc.o)
 .debug_frame   0x0000ea38       0x58 c:/nburn/gcc-m68k/bin/../lib/gcc/m68k-elf/4.2.1/../../../../m68k-elf/lib/m5206e\libc.a(lib_a-fputs.o)
 .debug_frame   0x0000ea90       0x68 c:/nburn/gcc-m68k/bin/../lib/gcc/m68k-elf/4.2.1/../../../../m68k-elf/lib/m5206e\libc.a(lib_a-fvwrite.o)
 .debug_frame   0x0000eaf8       0x64 c:/nburn/gcc-m68k/bin/../lib/gcc/m68k-elf/4.2.1/../../../../m68k-elf/lib/m5206e\libc.a(lib_a-fwalk.o)
 .debug_frame   0x0000eb5c       0x58 c:/nburn/gcc-m68k/bin/../lib/gcc/m68k-elf/4.2.1/../../../../m68k-elf/lib/m5206e\libc.a(lib_a-fwrite.o)
 .debug_frame   0x0000ebb4       0x30 c:/nburn/gcc-m68k/bin/../lib/gcc/m68k-elf/4.2.1/../../../../m68k-elf/lib/m5206e\libc.a(lib_a-gmtime.o)
 .debug_frame   0x0000ebe4       0x30 c:/nburn/gcc-m68k/bin/../lib/gcc/m68k-elf/4.2.1/../../../../m68k-elf/lib/m5206e\libc.a(lib_a-gmtime_r.o)
 .debug_frame   0x0000ec14       0x4c c:/nburn/gcc-m68k/bin/../lib/gcc/m68k-elf/4.2.1/../../../../m68k-elf/lib/m5206e\libc.a(lib_a-iprintf.o)
 .debug_frame   0x0000ec60       0x44 c:/nburn/gcc-m68k/bin/../lib/gcc/m68k-elf/4.2.1/../../../../m68k-elf/lib/m5206e\libc.a(lib_a-isprint.o)
 .debug_frame   0x0000eca4       0x2c c:/nburn/gcc-m68k/bin/../lib/gcc/m68k-elf/4.2.1/../../../../m68k-elf/lib/m5206e\libc.a(lib_a-isspace.o)
 .debug_frame   0x0000ecd0       0x4c c:/nburn/gcc-m68k/bin/../lib/gcc/m68k-elf/4.2.1/../../../../m68k-elf/lib/m5206e\libc.a(lib_a-malloc.o)
 .debug_frame   0x0000ed1c       0x58 c:/nburn/gcc-m68k/bin/../lib/gcc/m68k-elf/4.2.1/../../../../m68k-elf/lib/m5206e\libc.a(lib_a-mallocr.o)
 .debug_frame   0x0000ed74       0x34 c:/nburn/gcc-m68k/bin/../lib/gcc/m68k-elf/4.2.1/../../../../m68k-elf/lib/m5206e\libc.a(lib_a-memchr.o)
 .debug_frame   0x0000eda8       0x30 c:/nburn/gcc-m68k/bin/../lib/gcc/m68k-elf/4.2.1/../../../../m68k-elf/lib/m5206e\libc.a(lib_a-memcmp.o)
 .debug_frame   0x0000edd8       0x38 c:/nburn/gcc-m68k/bin/../lib/gcc/m68k-elf/4.2.1/../../../../m68k-elf/lib/m5206e\libc.a(lib_a-memmove.o)
 .debug_frame   0x0000ee10       0x70 c:/nburn/gcc-m68k/bin/../lib/gcc/m68k-elf/4.2.1/../../../../m68k-elf/lib/m5206e\libc.a(lib_a-mktm_r.o)
 .debug_frame   0x0000ee80       0x4c c:/nburn/gcc-m68k/bin/../lib/gcc/m68k-elf/4.2.1/../../../../m68k-elf/lib/m5206e\libc.a(lib_a-printf.o)
 .debug_frame   0x0000eecc       0x58 c:/nburn/gcc-m68k/bin/../lib/gcc/m68k-elf/4.2.1/../../../../m68k-elf/lib/m5206e\libc.a(lib_a-putc.o)
 .debug_frame   0x0000ef24       0x54 c:/nburn/gcc-m68k/bin/../lib/gcc/m68k-elf/4.2.1/../../../../m68k-elf/lib/m5206e\libc.a(lib_a-puts.o)
 .debug_frame   0x0000ef78       0x4c c:/nburn/gcc-m68k/bin/../lib/gcc/m68k-elf/4.2.1/../../../../m68k-elf/lib/m5206e\libc.a(lib_a-rand.o)
 .debug_frame   0x0000efc4       0x30 c:/nburn/gcc-m68k/bin/../lib/gcc/m68k-elf/4.2.1/../../../../m68k-elf/lib/m5206e\libc.a(lib_a-realloc.o)
 .debug_frame   0x0000eff4       0x64 c:/nburn/gcc-m68k/bin/../lib/gcc/m68k-elf/4.2.1/../../../../m68k-elf/lib/m5206e\libc.a(lib_a-reallocr.o)
 .debug_frame   0x0000f058       0x4c c:/nburn/gcc-m68k/bin/../lib/gcc/m68k-elf/4.2.1/../../../../m68k-elf/lib/m5206e\libc.a(lib_a-rget.o)
 .debug_frame   0x0000f0a4       0x3c c:/nburn/gcc-m68k/bin/../lib/gcc/m68k-elf/4.2.1/../../../../m68k-elf/lib/m5206e\libc.a(lib_a-setvbuf.o)
 .debug_frame   0x0000f0e0      0x108 c:/nburn/gcc-m68k/bin/../lib/gcc/m68k-elf/4.2.1/../../../../m68k-elf/lib/m5206e\libc.a(lib_a-signal.o)
 .debug_frame   0x0000f1e8       0x48 c:/nburn/gcc-m68k/bin/../lib/gcc/m68k-elf/4.2.1/../../../../m68k-elf/lib/m5206e\libc.a(lib_a-signalr.o)
 .debug_frame   0x0000f230       0x54 c:/nburn/gcc-m68k/bin/../lib/gcc/m68k-elf/4.2.1/../../../../m68k-elf/lib/m5206e\libc.a(lib_a-siprintf.o)
 .debug_frame   0x0000f284       0x54 c:/nburn/gcc-m68k/bin/../lib/gcc/m68k-elf/4.2.1/../../../../m68k-elf/lib/m5206e\libc.a(lib_a-sprintf.o)
 .debug_frame   0x0000f2d8       0x6c c:/nburn/gcc-m68k/bin/../lib/gcc/m68k-elf/4.2.1/../../../../m68k-elf/lib/m5206e\libc.a(lib_a-sscanf.o)
 .debug_frame   0x0000f344       0x84 c:/nburn/gcc-m68k/bin/../lib/gcc/m68k-elf/4.2.1/../../../../m68k-elf/lib/m5206e\libc.a(lib_a-stdio.o)
 .debug_frame   0x0000f3c8       0x30 c:/nburn/gcc-m68k/bin/../lib/gcc/m68k-elf/4.2.1/../../../../m68k-elf/lib/m5206e\libc.a(lib_a-strcasecmp.o)
 .debug_frame   0x0000f3f8       0x30 c:/nburn/gcc-m68k/bin/../lib/gcc/m68k-elf/4.2.1/../../../../m68k-elf/lib/m5206e\libc.a(lib_a-strcat.o)
 .debug_frame   0x0000f428       0x34 c:/nburn/gcc-m68k/bin/../lib/gcc/m68k-elf/4.2.1/../../../../m68k-elf/lib/m5206e\libc.a(lib_a-strchr.o)
 .debug_frame   0x0000f45c       0x2c c:/nburn/gcc-m68k/bin/../lib/gcc/m68k-elf/4.2.1/../../../../m68k-elf/lib/m5206e\libc.a(lib_a-strcmp.o)
 .debug_frame   0x0000f488       0x30 c:/nburn/gcc-m68k/bin/../lib/gcc/m68k-elf/4.2.1/../../../../m68k-elf/lib/m5206e\libc.a(lib_a-strcpy.o)
 .debug_frame   0x0000f4b8       0x2c c:/nburn/gcc-m68k/bin/../lib/gcc/m68k-elf/4.2.1/../../../../m68k-elf/lib/m5206e\libc.a(lib_a-strlen.o)
 .debug_frame   0x0000f4e4       0x34 c:/nburn/gcc-m68k/bin/../lib/gcc/m68k-elf/4.2.1/../../../../m68k-elf/lib/m5206e\libc.a(lib_a-strncmp.o)
 .debug_frame   0x0000f518       0x34 c:/nburn/gcc-m68k/bin/../lib/gcc/m68k-elf/4.2.1/../../../../m68k-elf/lib/m5206e\libc.a(lib_a-strncpy.o)
 .debug_frame   0x0000f54c       0x34 c:/nburn/gcc-m68k/bin/../lib/gcc/m68k-elf/4.2.1/../../../../m68k-elf/lib/m5206e\libc.a(lib_a-strspn.o)
 .debug_frame   0x0000f580       0x30 c:/nburn/gcc-m68k/bin/../lib/gcc/m68k-elf/4.2.1/../../../../m68k-elf/lib/m5206e\libc.a(lib_a-strstr.o)
 .debug_frame   0x0000f5b0      0x164 c:/nburn/gcc-m68k/bin/../lib/gcc/m68k-elf/4.2.1/../../../../m68k-elf/lib/m5206e\libc.a(lib_a-strtod.o)
 .debug_frame   0x0000f714       0x54 c:/nburn/gcc-m68k/bin/../lib/gcc/m68k-elf/4.2.1/../../../../m68k-elf/lib/m5206e\libc.a(lib_a-strtok_r.o)
 .debug_frame   0x0000f768       0x5c c:/nburn/gcc-m68k/bin/../lib/gcc/m68k-elf/4.2.1/../../../../m68k-elf/lib/m5206e\libc.a(lib_a-strtol.o)
 .debug_frame   0x0000f7c4       0x2c c:/nburn/gcc-m68k/bin/../lib/gcc/m68k-elf/4.2.1/../../../../m68k-elf/lib/m5206e\libc.a(lib_a-tolower.o)
 .debug_frame   0x0000f7f0       0x2c c:/nburn/gcc-m68k/bin/../lib/gcc/m68k-elf/4.2.1/../../../../m68k-elf/lib/m5206e\libc.a(lib_a-toupper.o)
 .debug_frame   0x0000f81c       0xc8 c:/nburn/gcc-m68k/bin/../lib/gcc/m68k-elf/4.2.1/../../../../m68k-elf/lib/m5206e\libc.a(lib_a-vfiprintf.o)
 .debug_frame   0x0000f8e4      0x100 c:/nburn/gcc-m68k/bin/../lib/gcc/m68k-elf/4.2.1/../../../../m68k-elf/lib/m5206e\libc.a(lib_a-vfprintf.o)
 .debug_frame   0x0000f9e4       0xe8 c:/nburn/gcc-m68k/bin/../lib/gcc/m68k-elf/4.2.1/../../../../m68k-elf/lib/m5206e\libc.a(lib_a-vfscanf.o)
 .debug_frame   0x0000facc       0x54 c:/nburn/gcc-m68k/bin/../lib/gcc/m68k-elf/4.2.1/../../../../m68k-elf/lib/m5206e\libc.a(lib_a-wbuf.o)
 .debug_frame   0x0000fb20       0x50 c:/nburn/gcc-m68k/bin/../lib/gcc/m68k-elf/4.2.1/../../../../m68k-elf/lib/m5206e\libc.a(lib_a-wcrtomb.o)
 .debug_frame   0x0000fb70       0x60 c:/nburn/gcc-m68k/bin/../lib/gcc/m68k-elf/4.2.1/../../../../m68k-elf/lib/m5206e\libc.a(lib_a-wcsrtombs.o)
 .debug_frame   0x0000fbd0       0x3c c:/nburn/gcc-m68k/bin/../lib/gcc/m68k-elf/4.2.1/../../../../m68k-elf/lib/m5206e\libc.a(lib_a-wctomb_r.o)
 .debug_frame   0x0000fc0c       0x30 c:/nburn/gcc-m68k/bin/../lib/gcc/m68k-elf/4.2.1/../../../../m68k-elf/lib/m5206e\libc.a(lib_a-writer.o)
 .debug_frame   0x0000fc3c       0x38 c:/nburn/gcc-m68k/bin/../lib/gcc/m68k-elf/4.2.1/../../../../m68k-elf/lib/m5206e\libc.a(lib_a-wsetup.o)
 .debug_frame   0x0000fc74       0x38 c:/nburn/gcc-m68k/bin/../lib/gcc/m68k-elf/4.2.1/../../../../m68k-elf/lib/m5206e\libc.a(lib_a-__atexit.o)
 .debug_frame   0x0000fcac       0x30 c:/nburn/gcc-m68k/bin/../lib/gcc/m68k-elf/4.2.1/../../../../m68k-elf/lib/m5206e\libc.a(lib_a-closer.o)
 .debug_frame   0x0000fcdc      0x170 c:/nburn/gcc-m68k/bin/../lib/gcc/m68k-elf/4.2.1/../../../../m68k-elf/lib/m5206e\libc.a(lib_a-dtoa.o)
 .debug_frame   0x0000fe4c       0x5c c:/nburn/gcc-m68k/bin/../lib/gcc/m68k-elf/4.2.1/../../../../m68k-elf/lib/m5206e\libc.a(lib_a-fclose.o)
 .debug_frame   0x0000fea8       0x70 c:/nburn/gcc-m68k/bin/../lib/gcc/m68k-elf/4.2.1/../../../../m68k-elf/lib/m5206e\libc.a(lib_a-fread.o)
 .debug_frame   0x0000ff18       0x78 c:/nburn/gcc-m68k/bin/../lib/gcc/m68k-elf/4.2.1/../../../../m68k-elf/lib/m5206e\libc.a(lib_a-freer.o)
 .debug_frame   0x0000ff90       0xc4 c:/nburn/gcc-m68k/bin/../lib/gcc/m68k-elf/4.2.1/../../../../m68k-elf/lib/m5206e\libc.a(lib_a-gdtoa-gethex.o)
 .debug_frame   0x00010054       0x6c c:/nburn/gcc-m68k/bin/../lib/gcc/m68k-elf/4.2.1/../../../../m68k-elf/lib/m5206e\libc.a(lib_a-gdtoa-hexnan.o)
 .debug_frame   0x000100c0       0x2c c:/nburn/gcc-m68k/bin/../lib/gcc/m68k-elf/4.2.1/../../../../m68k-elf/lib/m5206e\libc.a(lib_a-gettzinfo.o)
 .debug_frame   0x000100ec       0x2c c:/nburn/gcc-m68k/bin/../lib/gcc/m68k-elf/4.2.1/../../../../m68k-elf/lib/m5206e\libc.a(lib_a-iswspace.o)
 .debug_frame   0x00010118       0x9c c:/nburn/gcc-m68k/bin/../lib/gcc/m68k-elf/4.2.1/../../../../m68k-elf/lib/m5206e\libc.a(lib_a-locale.o)
 .debug_frame   0x000101b4       0x30 c:/nburn/gcc-m68k/bin/../lib/gcc/m68k-elf/4.2.1/../../../../m68k-elf/lib/m5206e\libc.a(lib_a-lseekr.o)
 .debug_frame   0x000101e4       0x40 c:/nburn/gcc-m68k/bin/../lib/gcc/m68k-elf/4.2.1/../../../../m68k-elf/lib/m5206e\libc.a(lib_a-makebuf.o)
 .debug_frame   0x00010224       0x50 c:/nburn/gcc-m68k/bin/../lib/gcc/m68k-elf/4.2.1/../../../../m68k-elf/lib/m5206e\libc.a(lib_a-mbrtowc.o)
 .debug_frame   0x00010274       0x2c c:/nburn/gcc-m68k/bin/../lib/gcc/m68k-elf/4.2.1/../../../../m68k-elf/lib/m5206e\libc.a(lib_a-mbtowc_r.o)
 .debug_frame   0x000102a0      0x2cc c:/nburn/gcc-m68k/bin/../lib/gcc/m68k-elf/4.2.1/../../../../m68k-elf/lib/m5206e\libc.a(lib_a-mprec.o)
 .debug_frame   0x0001056c       0x30 c:/nburn/gcc-m68k/bin/../lib/gcc/m68k-elf/4.2.1/../../../../m68k-elf/lib/m5206e\libc.a(lib_a-readr.o)
 .debug_frame   0x0001059c       0x60 c:/nburn/gcc-m68k/bin/../lib/gcc/m68k-elf/4.2.1/../../../../m68k-elf/lib/m5206e\libc.a(lib_a-refill.o)
 .debug_frame   0x000105fc       0x34 c:/nburn/gcc-m68k/bin/../lib/gcc/m68k-elf/4.2.1/../../../../m68k-elf/lib/m5206e\libc.a(lib_a-sccl.o)
 .debug_frame   0x00010630       0x2c c:/nburn/gcc-m68k/bin/../lib/gcc/m68k-elf/4.2.1/../../../../m68k-elf/lib/m5206e\libc.a(lib_a-sf_nan.o)
 .debug_frame   0x0001065c       0x30 c:/nburn/gcc-m68k/bin/../lib/gcc/m68k-elf/4.2.1/../../../../m68k-elf/lib/m5206e\libc.a(lib_a-s_isinfd.o)
 .debug_frame   0x0001068c       0x30 c:/nburn/gcc-m68k/bin/../lib/gcc/m68k-elf/4.2.1/../../../../m68k-elf/lib/m5206e\libc.a(lib_a-s_isnand.o)
 .debug_frame   0x000106bc       0x44 c:/nburn/gcc-m68k/bin/../lib/gcc/m68k-elf/4.2.1/../../../../m68k-elf/lib/m5206e\libc.a(lib_a-strtoll_r.o)
 .debug_frame   0x00010700       0x44 c:/nburn/gcc-m68k/bin/../lib/gcc/m68k-elf/4.2.1/../../../../m68k-elf/lib/m5206e\libc.a(lib_a-strtoull_r.o)
 .debug_frame   0x00010744       0x5c c:/nburn/gcc-m68k/bin/../lib/gcc/m68k-elf/4.2.1/../../../../m68k-elf/lib/m5206e\libc.a(lib_a-strtoul.o)
 .debug_frame   0x000107a0       0x84 c:/nburn/gcc-m68k/bin/../lib/gcc/m68k-elf/4.2.1/../../../../m68k-elf/lib/m5206e\libc.a(lib_a-ungetc.o)
 .debug_frame   0x00010824       0x34 c:/nburn/gcc-m68k/bin/../lib/gcc/m68k-elf/4.2.1/../../../../m68k-elf/lib/m5206e\libc.a(lib_a-callocr.o)
 .debug_frame   0x00010858       0x30 c:/nburn/gcc-m68k/bin/../lib/gcc/m68k-elf/4.2.1/../../../../m68k-elf/lib/m5206e\libc.a(lib_a-fstatr.o)
 .debug_frame   0x00010888       0x40 c:/nburn/gcc-m68k/bin/../lib/gcc/m68k-elf/4.2.1/m5206e\libgcc.a(_muldi3.o)

.debug_str      0x00000000    0x216a0
 *(.debug_str)
 .debug_str     0x00000000      0x69e utils.o
                                0x779 (size before relaxing)
 .debug_str     0x0000069e    0x15ab4 services.o
                              0x167bc (size before relaxing)
 .debug_str     0x00016152      0xf01 observations.o
                               0x4aa7 (size before relaxing)
 .debug_str     0x00017053     0x12ab obs.o
                              0x12037 (size before relaxing)
 .debug_str     0x000182fe      0xd2d main.o
                              0x17415 (size before relaxing)
 .debug_str     0x0001902b      0xbee io.o
                               0x13df (size before relaxing)
 .debug_str     0x00019c19       0x1f dhtml.o
                                 0xf1 (size before relaxing)
 .debug_str     0x00019c38      0x248 data.o
                               0x9023 (size before relaxing)
 .debug_str     0x00019e80      0x14c control.o
                              0x11967 (size before relaxing)
 .debug_str     0x00019fcc        0xc boot.o
                              0x10cd5 (size before relaxing)
 .debug_str     0x00019fd8      0x90c argus_io.o
                                0xbc6 (size before relaxing)
 .debug_str     0x0001a8e4       0xa2 argus_control.o
                              0x103c3 (size before relaxing)
 .debug_str     0x0001a986      0x2c6 C:\nburn/lib/MOD5270.a(bsp.o)
                                0xfe3 (size before relaxing)
 .debug_str     0x0001ac4c      0x10f C:\nburn/lib/MOD5270.a(ioboard.o)
                                0xa94 (size before relaxing)
 .debug_str     0x0001ad5b       0x90 C:\nburn/lib/MOD5270.a(pins.o)
                                0xa21 (size before relaxing)
 .debug_str     0x0001adeb      0x2fe C:\nburn/lib/MOD5270.a(i2cmulti.o)
                                0xd34 (size before relaxing)
 .debug_str     0x0001b0e9      0x16d C:\nburn/lib/NetBurner.a(ucosmcfc.o)
                                0x205 (size before relaxing)
 .debug_str     0x0001b256      0x2df C:\nburn/lib/NetBurner.a(ucos.o)
                                0x5d1 (size before relaxing)
 .debug_str     0x0001b535       0xa5 C:\nburn/lib/NetBurner.a(ucosmain.o)
                                0x647 (size before relaxing)
 .debug_str     0x0001b5da      0x18e C:\nburn/lib/NetBurner.a(fileio.o)
                                0x677 (size before relaxing)
 .debug_str     0x0001b768      0x111 C:\nburn/lib/NetBurner.a(system.o)
                                0x6fb (size before relaxing)
 .debug_str     0x0001b879       0x3c C:\nburn/lib/NetBurner.a(main.o)
                                0x144 (size before relaxing)
 .debug_str     0x0001b8b5      0x316 C:\nburn/lib/NetBurner.a(utils.o)
                                0x810 (size before relaxing)
 .debug_str     0x0001bbcb     0x1333 C:\nburn/lib/NetBurner.a(ip.o)
                               0x1969 (size before relaxing)
 .debug_str     0x0001cefe      0x409 C:\nburn/lib/NetBurner.a(buffers.o)
                                0x8f1 (size before relaxing)
 .debug_str     0x0001d307      0x518 C:\nburn/lib/NetBurner.a(arp.o)
                               0x1733 (size before relaxing)
 .debug_str     0x0001d81f      0x2f7 C:\nburn/lib/NetBurner.a(udp.o)
                               0x1715 (size before relaxing)
 .debug_str     0x0001db16     0x1569 C:\nburn/lib/NetBurner.a(tcp.o)
                               0x2842 (size before relaxing)
 .debug_str     0x0001f07f      0x2a5 C:\nburn/lib/NetBurner.a(http.o)
                                0x3ff (size before relaxing)
 .debug_str     0x0001f324      0x2c7 C:\nburn/lib/NetBurner.a(httpinternal.o)
                                0x58b (size before relaxing)
 .debug_str     0x0001f5eb      0x219 C:\nburn/lib/NetBurner.a(htmldecomp.o)
                                0x43f (size before relaxing)
 .debug_str     0x0001f804       0x43 C:\nburn/lib/NetBurner.a(htmlvarplaceholder.o)
                                0x118 (size before relaxing)
 .debug_str     0x0001f847      0x26c C:\nburn/lib/NetBurner.a(iosys.o)
                                0x43a (size before relaxing)
 .debug_str     0x0001fab3       0x12 C:\nburn/lib/NetBurner.a(new_ops.o)
                                0x1a6 (size before relaxing)
 .debug_str     0x0001fac5       0x61 C:\nburn/lib/NetBurner.a(autoip.o)
                                0xe46 (size before relaxing)
 .debug_str     0x0001fb26      0x805 C:\nburn/lib/NetBurner.a(dhcpc.o)
                               0x1c25 (size before relaxing)
 .debug_str     0x0002032b      0x393 C:\nburn/lib/NetBurner.a(netinterface.o)
                               0x12a0 (size before relaxing)
 .debug_str     0x000206be       0xcc C:\nburn/lib/NetBurner.a(taskmon.o)
                                0x84b (size before relaxing)
 .debug_str     0x0002078a      0x18a C:\nburn/lib/NetBurner.a(smarttrap.o)
                                0x368 (size before relaxing)
 .debug_str     0x00020914      0x1c2 C:\nburn/lib/NetBurner.a(autoupdate.o)
                                0x919 (size before relaxing)
 .debug_str     0x00020ad6       0x86 C:\nburn/lib/NetBurner.a(device.o)
                                0x17f (size before relaxing)
 .debug_str     0x00020b5c      0x3de C:\nburn/lib/MOD5270.a(serial.o)
                               0x15dc (size before relaxing)
 .debug_str     0x00020f3a      0x4a5 C:\nburn/lib/MOD5270.a(ethernet.o)
                               0x1bdf (size before relaxing)
 .debug_str     0x000213df       0xbb C:\nburn/lib/MOD5270.a(etherprint.o)
                                0x21f (size before relaxing)
 .debug_str     0x0002149a       0xbf C:\nburn/lib/MOD5270.a(emulticast.o)
                                0x9be (size before relaxing)
 .debug_str     0x00021559       0xf6 C:\nburn/lib/NetBurner.a(extraio.o)
                                0x255 (size before relaxing)
 .debug_str     0x0002164f       0x51 C:\nburn/lib/NetBurner.a(netrx.o)
                                0x2e5 (size before relaxing)

.debug_loc      0x00000000    0x2ba74
 *(.debug_loc)
 .debug_loc     0x00000000      0xb50 utils.o
 .debug_loc     0x00000b50     0x1ddc services.o
 .debug_loc     0x0000292c      0xabe observations.o
 .debug_loc     0x000033ea     0x2d94 obs.o
 .debug_loc     0x0000617e     0x5b7f main.o
 .debug_loc     0x0000bcfd      0xcce io.o
 .debug_loc     0x0000c9cb       0x3e dhtml.o
 .debug_loc     0x0000ca09      0x481 data.o
 .debug_loc     0x0000ce8a     0x389d control.o
 .debug_loc     0x00010727      0x54c boot.o
 .debug_loc     0x00010c73     0x25b5 argus_io.o
 .debug_loc     0x00013228     0x214e argus_control.o
 .debug_loc     0x00015376      0x43f C:\nburn/lib/MOD5270.a(bsp.o)
 .debug_loc     0x000157b5      0x2ab C:\nburn/lib/MOD5270.a(ioboard.o)
 .debug_loc     0x00015a60      0x373 C:\nburn/lib/MOD5270.a(pins.o)
 .debug_loc     0x00015dd3      0x81e C:\nburn/lib/MOD5270.a(i2cmulti.o)
 .debug_loc     0x000165f1      0x3f3 C:\nburn/lib/NetBurner.a(ucosmcfc.o)
 .debug_loc     0x000169e4     0x127b C:\nburn/lib/NetBurner.a(ucos.o)
 .debug_loc     0x00017c5f       0xc0 C:\nburn/lib/NetBurner.a(ucosmain.o)
 .debug_loc     0x00017d1f      0x94e C:\nburn/lib/NetBurner.a(fileio.o)
 .debug_loc     0x0001866d      0x4a7 C:\nburn/lib/NetBurner.a(system.o)
 .debug_loc     0x00018b14       0x53 C:\nburn/lib/NetBurner.a(main.o)
 .debug_loc     0x00018b67      0xb06 C:\nburn/lib/NetBurner.a(utils.o)
 .debug_loc     0x0001966d     0x1902 C:\nburn/lib/NetBurner.a(ip.o)
 .debug_loc     0x0001af6f     0x10be C:\nburn/lib/NetBurner.a(buffers.o)
 .debug_loc     0x0001c02d     0x186b C:\nburn/lib/NetBurner.a(arp.o)
 .debug_loc     0x0001d898     0x1731 C:\nburn/lib/NetBurner.a(udp.o)
 .debug_loc     0x0001efc9     0x53c5 C:\nburn/lib/NetBurner.a(tcp.o)
 .debug_loc     0x0002438e      0x35b C:\nburn/lib/NetBurner.a(http.o)
 .debug_loc     0x000246e9      0xc90 C:\nburn/lib/NetBurner.a(httpinternal.o)
 .debug_loc     0x00025379      0x6b7 C:\nburn/lib/NetBurner.a(htmldecomp.o)
 .debug_loc     0x00025a30       0x20 C:\nburn/lib/NetBurner.a(htmlvarplaceholder.o)
 .debug_loc     0x00025a50      0xa3b C:\nburn/lib/NetBurner.a(iosys.o)
 .debug_loc     0x0002648b       0x62 C:\nburn/lib/NetBurner.a(new_ops.o)
 .debug_loc     0x000264ed      0x910 C:\nburn/lib/NetBurner.a(autoip.o)
 .debug_loc     0x00026dfd     0x1774 C:\nburn/lib/NetBurner.a(dhcpc.o)
 .debug_loc     0x00028571      0x741 C:\nburn/lib/NetBurner.a(netinterface.o)
 .debug_loc     0x00028cb2      0x170 C:\nburn/lib/NetBurner.a(taskmon.o)
 .debug_loc     0x00028e22      0x65f C:\nburn/lib/NetBurner.a(smarttrap.o)
 .debug_loc     0x00029481      0x3c3 C:\nburn/lib/NetBurner.a(autoupdate.o)
 .debug_loc     0x00029844       0x60 C:\nburn/lib/NetBurner.a(device.o)
 .debug_loc     0x000298a4     0x12f2 C:\nburn/lib/MOD5270.a(serial.o)
 .debug_loc     0x0002ab96      0x73e C:\nburn/lib/MOD5270.a(ethernet.o)
 .debug_loc     0x0002b2d4      0x16f C:\nburn/lib/MOD5270.a(etherprint.o)
 .debug_loc     0x0002b443       0xee C:\nburn/lib/MOD5270.a(emulticast.o)
 .debug_loc     0x0002b531      0x2d6 C:\nburn/lib/NetBurner.a(extraio.o)
 .debug_loc     0x0002b807      0x26d C:\nburn/lib/NetBurner.a(netrx.o)

.debug_macinfo
 *(.debug_macinfo)

.debug_weaknames
 *(.debug_weaknames)

.debug_funcnames
 *(.debug_funcnames)

.debug_typenames
 *(.debug_typenames)

.debug_varnames
 *(.debug_varnames)
OUTPUT(cmap.elf elf32-m68k)

.debug_ranges   0x00000000    0x162b8
 .debug_ranges  0x00000000       0xc0 utils.o
 .debug_ranges  0x000000c0     0x15a0 services.o
 .debug_ranges  0x00001660      0x340 observations.o
 .debug_ranges  0x000019a0     0x3d10 obs.o
 .debug_ranges  0x000056b0     0x9020 main.o
 .debug_ranges  0x0000e6d0       0xd8 io.o
 .debug_ranges  0x0000e7a8      0x2c8 data.o
 .debug_ranges  0x0000ea70     0x31e0 control.o
 .debug_ranges  0x00011c50      0x4f8 boot.o
 .debug_ranges  0x00012148      0x3a0 argus_io.o
 .debug_ranges  0x000124e8      0x8a0 argus_control.o
 .debug_ranges  0x00012d88       0x38 C:\nburn/lib/MOD5270.a(pins.o)
 .debug_ranges  0x00012dc0       0x78 C:\nburn/lib/MOD5270.a(i2cmulti.o)
 .debug_ranges  0x00012e38       0x18 C:\nburn/lib/NetBurner.a(ucos.o)
 .debug_ranges  0x00012e50       0x40 C:\nburn/lib/NetBurner.a(fileio.o)
 .debug_ranges  0x00012e90      0x180 C:\nburn/lib/NetBurner.a(utils.o)
 .debug_ranges  0x00013010      0x258 C:\nburn/lib/NetBurner.a(ip.o)
 .debug_ranges  0x00013268      0x288 C:\nburn/lib/NetBurner.a(buffers.o)
 .debug_ranges  0x000134f0      0x358 C:\nburn/lib/NetBurner.a(arp.o)
 .debug_ranges  0x00013848      0x338 C:\nburn/lib/NetBurner.a(udp.o)
 .debug_ranges  0x00013b80     0x10f0 C:\nburn/lib/NetBurner.a(tcp.o)
 .debug_ranges  0x00014c70       0xb8 C:\nburn/lib/NetBurner.a(http.o)
 .debug_ranges  0x00014d28       0x20 C:\nburn/lib/NetBurner.a(httpinternal.o)
 .debug_ranges  0x00014d48       0x68 C:\nburn/lib/NetBurner.a(htmldecomp.o)
 .debug_ranges  0x00014db0       0x30 C:\nburn/lib/NetBurner.a(iosys.o)
 .debug_ranges  0x00014de0       0xc0 C:\nburn/lib/NetBurner.a(autoip.o)
 .debug_ranges  0x00014ea0      0xe10 C:\nburn/lib/NetBurner.a(dhcpc.o)
 .debug_ranges  0x00015cb0       0x88 C:\nburn/lib/NetBurner.a(netinterface.o)
 .debug_ranges  0x00015d38       0x38 C:\nburn/lib/NetBurner.a(taskmon.o)
 .debug_ranges  0x00015d70       0xb8 C:\nburn/lib/NetBurner.a(smarttrap.o)
 .debug_ranges  0x00015e28       0x80 C:\nburn/lib/NetBurner.a(autoupdate.o)
 .debug_ranges  0x00015ea8      0x200 C:\nburn/lib/MOD5270.a(serial.o)
 .debug_ranges  0x000160a8      0x150 C:\nburn/lib/MOD5270.a(ethernet.o)
 .debug_ranges  0x000161f8       0x28 C:\nburn/lib/MOD5270.a(etherprint.o)
 .debug_ranges  0x00016220       0x18 C:\nburn/lib/MOD5270.a(emulticast.o)
 .debug_ranges  0x00016238       0x38 C:\nburn/lib/NetBurner.a(extraio.o)
 .debug_ranges  0x00016270       0x48 C:\nburn/lib/NetBurner.a(netrx.o)

.comment        0x00000000      0x34e
 .comment       0x00000000       0x12 utils.o
 .comment       0x00000012       0x12 services.o
 .comment       0x00000024       0x12 observations.o
 .comment       0x00000036       0x12 obs.o
 .comment       0x00000048       0x12 main.o
 .comment       0x0000005a       0x12 io.o
 .comment       0x0000006c       0x12 dhtml.o
 .comment       0x0000007e       0x12 data.o
 .comment       0x00000090       0x12 control.o
 .comment       0x000000a2       0x12 boot.o
 .comment       0x000000b4       0x12 argus_io.o
 .comment       0x000000c6       0x12 argus_control.o
 .comment       0x000000d8       0x12 C:\nburn/lib/MOD5270.a(bsp.o)
 .comment       0x000000ea       0x12 C:\nburn/lib/MOD5270.a(ioboard.o)
 .comment       0x000000fc       0x12 C:\nburn/lib/MOD5270.a(pins.o)
 .comment       0x0000010e       0x12 C:\nburn/lib/MOD5270.a(i2cmulti.o)
 .comment       0x00000120       0x12 C:\nburn/lib/NetBurner.a(ucosmcfc.o)
 .comment       0x00000132       0x12 C:\nburn/lib/NetBurner.a(ucos.o)
 .comment       0x00000144       0x12 C:\nburn/lib/NetBurner.a(ucosmain.o)
 .comment       0x00000156       0x12 C:\nburn/lib/NetBurner.a(fileio.o)
 .comment       0x00000168       0x12 C:\nburn/lib/NetBurner.a(system.o)
 .comment       0x0000017a       0x12 C:\nburn/lib/NetBurner.a(main.o)
 .comment       0x0000018c       0x12 C:\nburn/lib/NetBurner.a(utils.o)
 .comment       0x0000019e       0x12 C:\nburn/lib/NetBurner.a(ip.o)
 .comment       0x000001b0       0x12 C:\nburn/lib/NetBurner.a(buffers.o)
 .comment       0x000001c2       0x12 C:\nburn/lib/NetBurner.a(arp.o)
 .comment       0x000001d4       0x12 C:\nburn/lib/NetBurner.a(udp.o)
 .comment       0x000001e6       0x12 C:\nburn/lib/NetBurner.a(tcp.o)
 .comment       0x000001f8       0x12 C:\nburn/lib/NetBurner.a(http.o)
 .comment       0x0000020a       0x12 C:\nburn/lib/NetBurner.a(httpinternal.o)
 .comment       0x0000021c       0x12 C:\nburn/lib/NetBurner.a(htmldecomp.o)
 .comment       0x0000022e       0x12 C:\nburn/lib/NetBurner.a(htmlvarplaceholder.o)
 .comment       0x00000240       0x12 C:\nburn/lib/NetBurner.a(iosys.o)
 .comment       0x00000252       0x12 C:\nburn/lib/NetBurner.a(new_ops.o)
 .comment       0x00000264       0x12 C:\nburn/lib/NetBurner.a(autoip.o)
 .comment       0x00000276       0x12 C:\nburn/lib/NetBurner.a(dhcpc.o)
 .comment       0x00000288       0x12 C:\nburn/lib/NetBurner.a(netinterface.o)
 .comment       0x0000029a       0x12 C:\nburn/lib/NetBurner.a(taskmon.o)
 .comment       0x000002ac       0x12 C:\nburn/lib/NetBurner.a(smarttrap.o)
 .comment       0x000002be       0x12 C:\nburn/lib/NetBurner.a(autoupdate.o)
 .comment       0x000002d0       0x12 C:\nburn/lib/NetBurner.a(device.o)
 .comment       0x000002e2       0x12 C:\nburn/lib/MOD5270.a(serial.o)
 .comment       0x000002f4       0x12 C:\nburn/lib/MOD5270.a(ethernet.o)
 .comment       0x00000306       0x12 C:\nburn/lib/MOD5270.a(etherprint.o)
 .comment       0x00000318       0x12 C:\nburn/lib/MOD5270.a(emulticast.o)
 .comment       0x0000032a       0x12 C:\nburn/lib/NetBurner.a(extraio.o)
 .comment       0x0000033c       0x12 C:\nburn/lib/NetBurner.a(netrx.o)
